ccollections
defaultdict
p1
(c__builtin__
list
p2
tRp3
(I827
I-1467
I640
tp4
(lp5
(I-95
I-1471
I608
tp6
as(I-304
I-610
I640
tp7
(lp8
(I-132
I-1538
I608
tp9
as(I-573
I238
I801
tp10
(lp11
(I-458
I442
I801
tp12
as(I-310
I-707
I640
tp13
(lp14
(I-222
I-471
I678
tp15
as(I862
I-200
I648
tp16
(lp17
(I-75
I-330
I648
tp18
as(I-255
I-610
I640
tp19
(lp20
(I-257
I-636
I640
tp21
as(I-1416
I1159
I791
tp22
(lp23
(I-1535
I-347
I608
tp24
a(I-1567
I-316
I608
tp25
as(I-325
I-750
I640
tp26
(lp27
(I-290
I-247
I640
tp28
as(I-751
I-69
I608
tp29
(lp30
(I-1529
I22
I800
tp31
as(I-376
I-363
I800
tp32
(lp33
(I-71
I-962
I800
tp34
as(I712
I-1108
I640
tp35
(lp36
(I689
I-965
I640
tp37
as(I-1311
I568
I800
tp38
(lp39
(I-921
I489
I800
tp40
as(I-221
I-965
I640
tp41
(lp42
(I-56
I-852
I640
tp43
as(I-389
I1002
I616
tp44
(lp45
(I387
I1009
I648
tp46
as(I632
I-1072
I640
tp47
(lp48
(I342
I-615
I655
tp49
as(I-310
I-153
I640
tp50
(lp51
(I-68
I-56
I648
tp52
as(I529
I1284
I647
tp53
(lp54
(I440
I1459
I616
tp55
as(I97
I242
I648
tp56
(lp57
(I46
I1167
I616
tp58
as(I965
I-1153
I640
tp59
(lp60
(I1093
I-1221
I640
tp61
as(I77
I366
I650
tp62
(lp63
(I-62
I833
I616
tp64
as(I-742
I-236
I800
tp65
(lp66
(I-563
I212
I801
tp67
as(I108
I-1739
I608
tp68
(lp69
(I-632
I-1565
I608
tp70
as(I-511
I-60
I632
tp71
(lp72
(I-1639
I-227
I612
tp73
as(I794
I-268
I650
tp74
(lp75
(I371
I482
I648
tp76
as(I-365
I-391
I640
tp77
(lp78
(I48
I26
I648
tp79
as(I759
I-1438
I640
tp80
(lp81
(I828
I-360
I648
tp82
as(I-1254
I685
I800
tp83
(lp84
(I-1244
I750
I800
tp85
as(I-421
I57
I800
tp86
(lp87
(I-270
I-194
I800
tp88
a(I621
I-38
I650
tp89
as(I403
I-379
I648
tp90
(lp91
(I558
I-359
I657
tp92
as(I-453
I-1526
I608
tp93
(lp94
(I-423
I-1317
I608
tp95
as(I-1324
I-116
I608
tp96
(lp97
(I-1219
I357
I800
tp98
as(I-1244
I601
I800
tp99
(lp100
(I-1016
I195
I767
tp101
as(I-1483
I-392
I826
tp102
(lp103
(I-1176
I410
I800
tp104
as(I-320
I-791
I640
tp105
(lp106
(I-138
I-1469
I608
tp107
as(I583
I-816
I642
tp108
(lp109
(I807
I-1083
I640
tp110
as(I-470
I-1677
I608
tp111
(lp112
(I-138
I-811
I640
tp113
as(I-1407
I-279
I800
tp114
(lp115
(I-1296
I-275
I800
tp116
a(I-1392
I979
I797
tp117
as(I59
I477
I650
tp118
(lp119
(I306
I525
I671
tp120
as(I-1289
I1073
I796
tp121
(lp122
(I-1004
I497
I800
tp123
as(I-1513
I-503
I800
tp124
(lp125
(I-1414
I-80
I800
tp126
as(I662
I342
I650
tp127
(lp128
(I335
I-600
I653
tp129
as(I-43
I-65
I648
tp130
(lp131
(I387
I517
I648
tp132
as(I364
I1128
I648
tp133
(lp134
(I-1503
I-378
I608
tp135
a(I258
I964
I648
tp136
as(I758
I-237
I650
tp137
(lp138
(I-477
I50
I800
tp139
as(I702
I-1259
I648
tp140
(lp141
(I952
I-1195
I662
tp142
as(I287
I-643
I660
tp143
(lp144
(I-265
I-1026
I640
tp145
as(I-1503
I-985
I800
tp146
(lp147
(I-1517
I-362
I800
tp148
as(I-458
I985
I616
tp149
(lp150
(I517
I1046
I648
tp151
as(I-1158
I167
I807
tp152
(lp153
(I-1380
I176
I608
tp154
as(I-1120
I1481
I620
tp155
(lp156
(I-493
I1183
I616
tp157
as(I198
I566
I648
tp158
(lp159
(I349
I328
I648
tp160
as(I17
I-1708
I608
tp161
(lp162
(I-222
I-597
I640
tp163
as(I-1449
I356
I800
tp164
(lp165
(I-1562
I-927
I803
tp166
as(I-1316
I809
I800
tp167
(lp168
(I-774
I2132
I780
tp169
as(I-278
I-1014
I640
tp170
(lp171
(I-378
I-160
I640
tp172
as(I-358
I-363
I800
tp173
(lp174
(I-935
I-271
I800
tp175
as(I-275
I-459
I800
tp176
(lp177
(I-547
I-252
I800
tp178
as(I290
I1031
I648
tp179
(lp180
(I303
I1748
I608
tp181
as(I172
I292
I648
tp182
(lp183
(I-114
I1350
I616
tp184
as(I1091
I-852
I640
tp185
(lp186
(I1042
I-762
I648
tp187
as(I671
I-1681
I640
tp188
(lp189
(I819
I-1057
I640
tp190
as(I-1405
I-330
I800
tp191
(lp192
(I-981
I-189
I800
tp193
as(I-1458
I-297
I800
tp194
(lp195
(I-1503
I-980
I800
tp196
as(I-376
I1172
I616
tp197
(lp198
(I401
I916
I648
tp199
as(I377
I-846
I640
tp200
(lp201
(I491
I-864
I640
tp202
as(I-352
I-1184
I608
tp203
(lp204
(I-246
I-990
I640
tp205
a(I-268
I69
I800
tp206
as(I-272
I-459
I800
tp207
(lp208
(I-78
I-703
I800
tp209
as(I-131
I1052
I616
tp210
(lp211
(I70
I1021
I634
tp212
as(I796
I-272
I650
tp213
(lp214
(I338
I-253
I648
tp215
as(I542
I-1509
I640
tp216
(lp217
(I-383
I-1474
I608
tp218
as(I-935
I-257
I608
tp219
(lp220
(I-1683
I-256
I616
tp221
a(I-1668
I-282
I612
tp222
as(I-964
I-1527
I704
tp223
(lp224
(I-232
I-1648
I608
tp225
as(I370
I933
I648
tp226
(lp227
(I-1118
I1073
I796
tp228
as(I504
I265
I680
tp229
(lp230
(I-6
I-37
I648
tp231
as(I-683
I-1529
I620
tp232
(lp233
(I-545
I-1530
I608
tp234
a(I-401
I-1515
I608
tp235
as(I812
I-1257
I640
tp236
(lp237
(I1092
I-1211
I640
tp238
as(I-1459
I243
I800
tp239
(lp240
(I-443
I-274
I800
tp241
as(I-1386
I635
I800
tp242
(lp243
(I-1035
I1149
I792
tp244
a(I-1117
I382
I800
tp245
as(I-689
I-1559
I620
tp246
(lp247
(I558
I-1519
I640
tp248
as(I207
I786
I648
tp249
(lp250
(I233
I848
I648
tp251
as(I1019
I-660
I648
tp252
(lp253
(I405
I-724
I647
tp254
as(I-566
I-333
I620
tp255
(lp256
(I-809
I-327
I608
tp257
as(I-1186
I1056
I796
tp258
(lp259
(I-817
I-163
I800
tp260
as(I-189
I-1074
I640
tp261
(lp262
(I-327
I-850
I643
tp263
as(I-1738
I477
I800
tp264
(lp265
(I-1208
I963
I804
tp266
a(I-1241
I324
I800
tp267
as(I82
I-1612
I608
tp268
(lp269
(I-206
I-1408
I608
tp270
as(I-1119
I-918
I800
tp271
(lp272
(I-1408
I-920
I800
tp273
as(I-132
I-1558
I608
tp274
(lp275
(I-293
I-999
I640
tp276
as(I93
I46
I650
tp277
(lp278
(I-142
I-267
I648
tp279
as(I-419
I-275
I800
tp280
(lp281
(I-239
I-285
I800
tp282
as(I715
I502
I648
tp283
(lp284
(I-549
I-1625
I608
tp285
as(I881
I-1064
I640
tp286
(lp287
(I639
I-696
I643
tp288
as(I356
I-553
I648
tp289
(lp290
(I681
I-14
I650
tp291
as(I-327
I-693
I640
tp292
(lp293
(I-178
I-1366
I608
tp294
as(I-258
I-1143
I608
tp295
(lp296
(I-276
I-1119
I613
tp297
as(I689
I-1550
I640
tp298
(lp299
(I763
I-1425
I640
tp300
as(I-60
I721
I627
tp301
(lp302
(I-51
I756
I616
tp303
as(I605
I744
I648
tp304
(lp305
(I577
I732
I648
tp306
as(I80
I-1666
I608
tp307
(lp308
(I-730
I-1616
I647
tp309
as(I-358
I-238
I800
tp310
(lp311
(I742
I-256
I650
tp312
as(I-737
I-1582
I652
tp313
(lp314
(I-201
I-1647
I608
tp315
as(I346
I-1473
I640
tp316
(lp317
(I-402
I-1479
I608
tp318
as(I-700
I-284
I800
tp319
(lp320
(I-982
I383
I800
tp321
as(I135
I-1547
I609
tp322
(lp323
(I98
I-1511
I608
tp324
as(I-1719
I-110
I800
tp325
(lp326
(I-1482
I444
I800
tp327
a(I-1188
I334
I800
tp328
as(I689
I153
I650
tp329
(lp330
(I618
I-96
I650
tp331
as(I-34
I512
I648
tp332
(lp333
(I74
I87
I650
tp334
as(I-1185
I-960
I800
tp335
(lp336
(I-1381
I-655
I800
tp337
as(I529
I-897
I640
tp338
(lp339
(I-350
I-768
I640
tp340
as(I-208
I-1142
I608
tp341
(lp342
(I-257
I-1037
I640
tp343
as(I735
I-202
I650
tp344
(lp345
(I351
I303
I648
tp346
as(I-1358
I-290
I800
tp347
(lp348
(I-929
I-260
I800
tp349
as(I648
I280
I650
tp350
(lp351
(I646
I696
I648
tp352
as(I795
I-700
I648
tp353
(lp354
(I917
I-590
I648
tp355
as(I-307
I-1364
I608
tp356
(lp357
(I-118
I-1474
I608
tp358
as(I-339
I-427
I640
tp359
(lp360
(I-232
I-1382
I608
tp361
as(I-403
I-432
I640
tp362
(lp363
(I-256
I-479
I640
tp364
as(I96
I-740
I726
tp365
(lp366
(I-432
I-491
I800
tp367
as(I-192
I-927
I660
tp368
(lp369
(I-90
I-700
I800
tp370
as(I-264
I-1036
I640
tp371
(lp372
(I-46
I-884
I640
tp373
as(I600
I-184
I650
tp374
(lp375
(I663
I382
I658
tp376
as(I-91
I-914
I640
tp377
(lp378
(I519
I-695
I649
tp379
as(I-1370
I213
I801
tp380
(lp381
(I-1451
I229
I800
tp382
as(I-1362
I712
I820
tp383
(lp384
(I-1502
I1952
I632
tp385
as(I631
I1067
I648
tp386
(lp387
(I-1215
I1021
I796
tp388
as(I-505
I1478
I608
tp389
(lp390
(I-545
I1029
I623
tp391
as(I-1096
I1030
I796
tp392
(lp393
(I-1721
I-68
I800
tp394
as(I-1354
I-261
I800
tp395
(lp396
(I-1511
I-496
I800
tp397
as(I-332
I-730
I640
tp398
(lp399
(I-767
I125
I800
tp400
as(I-976
I-1393
I766
tp401
(lp402
(I-1031
I-816
I800
tp403
as(I-993
I-343
I800
tp404
(lp405
(I-523
I-294
I800
tp406
as(I630
I-133
I683
tp407
(lp408
(I-86
I812
I616
tp409
as(I1113
I-852
I640
tp410
(lp411
(I729
I-171
I650
tp412
as(I-1580
I-933
I800
tp413
(lp414
(I-1346
I822
I800
tp415
as(I-127
I-810
I655
tp416
(lp417
(I899
I-742
I648
tp418
as(I-59
I-1371
I608
tp419
(lp420
(I-802
I-1584
I695
tp421
as(I-412
I-1352
I608
tp422
(lp423
(I-304
I-1058
I640
tp424
as(I-325
I-1326
I608
tp425
(lp426
(I204
I-1478
I621
tp427
as(I-267
I-586
I640
tp428
(lp429
(I-301
I-865
I640
tp430
as(I-335
I-1111
I623
tp431
(lp432
(I-90
I-1619
I608
tp433
as(I1075
I-856
I640
tp434
(lp435
(I706
I-59
I650
tp436
as(I-250
I-474
I800
tp437
(lp438
(I-591
I-286
I800
tp439
asg70
(lp440
g68
as(I-1013
I410
I800
tp441
(lp442
(I-693
I-238
I800
tp443
as(I-427
I-1281
I608
tp444
(lp445
(I-231
I-994
I640
tp446
a(I-232
I-991
I640
tp447
as(I11
I2042
I780
tp448
(lp449
(I-45
I2031
I780
tp450
as(I-608
I-1611
I608
tp451
(lp452
(I-888
I-1555
I704
tp453
as(I-867
I-1099
I800
tp454
(lp455
(I-897
I-1104
I800
tp456
as(I234
I-1978
I608
tp457
(lp458
(I-150
I-1467
I608
tp459
as(I858
I-709
I648
tp460
(lp461
(I764
I-692
I640
tp462
as(I349
I-513
I648
tp463
(lp464
(I710
I340
I650
tp465
as(I-212
I-85
I648
tp466
(lp467
(I710
I340
I650
tp468
as(I905
I-1179
I640
tp469
(lp470
(I999
I-1241
I666
tp471
as(I1087
I-1490
I640
tp472
(lp473
(I326
I-824
I640
tp474
a(I-254
I-1669
I608
tp475
as(I-958
I-1455
I726
tp476
(lp477
(I-910
I-1267
I800
tp478
as(I666
I392
I658
tp479
(lp480
(I-277
I-330
I800
tp481
as(I347
I-1890
I608
tp482
(lp483
(I559
I-1738
I640
tp484
as(I-218
I-848
I800
tp485
(lp486
(I-115
I-889
I640
tp487
as(I-1474
I-387
I800
tp488
(lp489
(I-1114
I221
I777
tp490
as(I-1387
I666
I800
tp491
(lp492
(I-1759
I439
I800
tp493
as(I-811
I-77
I608
tp494
(lp495
(I-1002
I11
I629
tp496
as(I-1465
I1098
I796
tp497
(lp498
(I-1212
I711
I800
tp499
as(I22
I1248
I616
tp500
(lp501
(I7
I-193
I670
tp502
as(I-23
I-1949
I608
tp503
(lp504
(I40
I-1735
I608
tp505
as(I-793
I-1594
I689
tp506
(lp507
(I-414
I-1523
I608
tp508
as(I388
I518
I648
tp509
(lp510
(I-596
I1010
I649
tp511
as(I-1685
I550
I800
tp512
(lp513
(I-1625
I-66
I804
tp514
as(I-300
I-14
I800
tp515
(lp516
(I570
I38
I650
tp517
as(I-86
I812
I616
tp518
(lp519
(I377
I383
I648
tp520
ag407
as(I-1207
I268
I801
tp521
(lp522
(I-1241
I628
I800
tp523
as(I-283
I697
I800
tp524
(lp525
(I-1076
I1052
I796
tp526
as(I-1107
I-326
I608
tp527
(lp528
(I-1689
I-122
I612
tp529
as(I687
I183
I650
tp530
(lp531
(I712
I1042
I648
tp532
a(I-724
I1188
I707
tp533
as(I-1097
I-1020
I801
tp534
(lp535
(I-1473
I-468
I800
tp536
as(I591
I174
I650
tp537
(lp538
(I1032
I-629
I648
tp539
as(I634
I170
I650
tp540
(lp541
(I-115
I587
I648
tp542
as(I-355
I-448
I640
tp543
(lp544
(I209
I547
I648
tp545
as(I780
I-1151
I640
tp546
(lp547
(I968
I-1164
I640
tp548
as(I383
I511
I648
tp549
(lp550
(I702
I-1523
I640
tp551
a(I-72
I-82
I648
tp552
as(I998
I-1181
I640
tp553
(lp554
(I736
I-1452
I640
tp555
as(I-1688
I448
I800
tp556
(lp557
(I-1124
I379
I800
tp558
as(I-1651
I-210
I612
tp559
(lp560
(I-1586
I-289
I631
tp561
as(I-1363
I691
I800
tp562
(lp563
(I-1376
I849
I800
tp564
as(I-1138
I-562
I801
tp565
(lp566
(I-1125
I-1118
I800
tp567
as(I-283
I-1127
I609
tp568
(lp569
(I-363
I-248
I640
tp570
as(I-1103
I-896
I800
tp571
(lp572
(I-918
I-1164
I800
tp573
as(I-869
I-165
I800
tp574
(lp575
(I-1083
I-220
I800
tp576
as(I-1012
I-388
I800
tp577
(lp578
(I-284
I-205
I800
tp579
as(I-1371
I-288
I800
tp580
(lp581
(I-1436
I-335
I800
tp582
as(I-559
I-1624
I608
tp583
(lp584
(I-339
I-1135
I608
tp585
as(I-142
I710
I632
tp586
(lp587
(I16
I1936
I608
tp588
as(I-1667
I-243
I612
tp589
(lp590
(I-861
I-307
I608
tp591
as(I-1471
I96
I800
tp592
(lp593
(I-1347
I1211
I776
tp594
as(I-1502
I-468
I800
tp595
(lp596
(I-1105
I-74
I608
tp597
as(I-1381
I-752
I800
tp598
(lp599
(I-980
I-1206
I800
tp600
as(I-693
I-1599
I622
tp601
(lp602
(I-961
I-1445
I733
tp603
as(I768
I415
I648
tp604
(lp605
(I668
I385
I658
tp606
as(I-1136
I-1188
I800
tp607
(lp608
(I-1679
I-122
I612
tp609
as(I825
I-688
I648
tp610
(lp611
(I552
I-645
I649
tp612
a(I-134
I-711
I800
tp613
as(I-788
I-1529
I690
tp614
(lp615
(I-906
I-1530
I704
tp616
as(I-989
I-1196
I800
tp617
(lp618
(I-926
I-1260
I800
tp619
as(I697
I-1850
I609
tp620
(lp621
(I448
I-1554
I640
tp622
as(I211
I-1896
I608
tp623
(lp624
(I-415
I-1616
I608
tp625
as(I1086
I-1214
I640
tp626
(lp627
(I-204
I-616
I800
tp628
a(I783
I-255
I650
tp629
a(I-223
I-1351
I608
tp630
as(I-1219
I1617
I608
tp631
(lp632
(I128
I1964
I608
tp633
as(I854
I-1093
I640
tp634
(lp635
(I-276
I-480
I800
tp636
a(I744
I-1531
I640
tp637
as(I-784
I-294
I608
tp638
(lp639
(I-1639
I-316
I612
tp640
a(I-1640
I-247
I612
tp641
as(I53
I532
I648
tp642
(lp643
(I-42
I578
I648
tp644
as(I-1009
I-123
I608
tp645
(lp646
(I-1406
I114
I836
tp647
as(I575
I-56
I650
tp648
(lp649
(I724
I443
I648
tp650
as(I130
I163
I648
tp651
(lp652
(I48
I1872
I608
tp653
a(I110
I566
I648
tp654
as(I-545
I-311
I800
tp655
(lp656
(I-847
I244
I800
tp657
as(I-937
I-1140
I800
tp658
(lp659
(I-879
I-1080
I800
tp660
as(I-936
I463
I800
tp661
(lp662
(I-1380
I322
I801
tp663
as(I-542
I-1556
I608
tp664
(lp665
(I-195
I-920
I640
tp666
as(I722
I-1369
I640
tp667
(lp668
(I683
I-1054
I640
tp669
as(I-1223
I128
I717
tp670
(lp671
(I-982
I375
I800
tp672
as(I-1300
I986
I796
tp673
(lp674
(I-1519
I435
I800
tp675
as(I-1505
I-67
I608
tp676
(lp677
(I-1212
I89
I688
tp678
as(I-254
I-350
I647
tp679
(lp680
(I-260
I-318
I644
tp681
as(I615
I-1196
I640
tp682
(lp683
(I713
I-1252
I641
tp684
as(I-229
I-1751
I608
tp685
(lp686
(I-634
I-1601
I608
tp687
as(I485
I-1440
I640
tp688
(lp689
(I62
I478
I650
tp690
asg132
(lp691
g130
as(I198
I-1537
I619
tp692
(lp693
(I-30
I-1843
I608
tp694
as(I506
I745
I648
tp695
(lp696
(I287
I1001
I648
tp697
as(I-1467
I-599
I800
tp698
(lp699
(I-1034
I-892
I800
tp700
as(I-1362
I1351
I710
tp701
(lp702
(I-1395
I685
I800
tp703
as(I-1212
I985
I796
tp704
(lp705
(I-1484
I627
I800
tp706
as(I208
I1936
I608
tp707
(lp708
(I210
I-1867
I608
tp709
a(I251
I-1925
I608
tp710
a(I204
I-1843
I608
tp711
as(I-101
I-1614
I608
tp712
(lp713
(I-948
I-1597
I704
tp714
asg714
(lp715
g712
as(I-759
I90
I800
tp716
(lp717
(I-1409
I1125
I796
tp718
as(I380
I-632
I664
tp719
(lp720
(I413
I212
I648
tp721
as(I-292
I-1363
I608
tp722
(lp723
(I-69
I-1486
I608
tp724
asg570
(lp725
g568
as(I-435
I-1160
I608
tp726
(lp727
(I-285
I-1420
I608
tp728
as(I-1432
I-12
I800
tp729
(lp730
(I-1211
I276
I801
tp731
as(I-68
I666
I648
tp732
(lp733
(I-10
I896
I616
tp734
as(I103
I54
I648
tp735
(lp736
(I79
I281
I650
tp737
as(I902
I-441
I648
tp738
(lp739
(I1069
I-936
I640
tp740
as(I760
I-677
I640
tp741
(lp742
(I376
I-979
I640
tp743
as(I-1600
I488
I800
tp744
(lp745
(I-1225
I879
I800
tp746
as(I-240
I-1113
I616
tp747
(lp748
(I-103
I-1502
I608
tp749
as(I810
I-1298
I666
tp750
(lp751
(I1052
I-1154
I640
tp752
as(I386
I245
I648
tp753
(lp754
(I897
I-358
I648
tp755
as(I-213
I1147
I616
tp756
(lp757
(I704
I108
I650
tp758
as(I995
I-1207
I640
tp759
(lp760
(I922
I-1192
I640
tp761
as(I382
I-395
I648
tp762
(lp763
(I225
I-277
I648
tp764
as(I-166
I-906
I640
tp765
(lp766
(I-378
I-1459
I608
tp767
as(I-940
I-52
I608
tp768
(lp769
(I-1106
I241
I793
tp770
as(I-213
I-39
I800
tp771
(lp772
(I-91
I-748
I800
tp773
a(I-803
I345
I800
tp774
as(I-187
I1565
I608
tp775
(lp776
(I-22
I1050
I616
tp777
as(I412
I834
I648
tp778
(lp779
(I672
I589
I648
tp780
as(I971
I-468
I648
tp781
(lp782
(I-226
I851
I649
tp783
as(I-986
I-146
I608
tp784
(lp785
(I60
I-22
I648
tp786
asg567
(lp787
g565
as(I-911
I-1575
I704
tp788
(lp789
(I59
I-1853
I608
tp790
as(I-133
I-1444
I608
tp791
(lp792
(I-337
I-535
I640
tp793
as(I1047
I-748
I648
tp794
(lp795
(I777
I-731
I648
tp796
as(I-185
I-271
I648
tp797
(lp798
(I122
I31
I648
tp799
as(I51
I550
I648
tp800
(lp801
(I331
I367
I648
tp802
as(I-1689
I-95
I612
tp803
(lp804
(I-1595
I-165
I650
tp805
as(I-1446
I-902
I800
tp806
(lp807
(I-1504
I-460
I800
tp808
as(I129
I1916
I608
tp809
(lp810
(I-111
I864
I616
tp811
as(I-1002
I-961
I800
tp812
(lp813
(I-880
I-1093
I800
tp814
as(I-1348
I-714
I800
tp815
(lp816
(I-1228
I-569
I800
tp817
as(I168
I1002
I649
tp818
(lp819
(I-709
I1100
I705
tp820
as(I1113
I-1621
I640
tp821
(lp822
(I712
I-1416
I640
tp823
as(I-1589
I1943
I632
tp824
(lp825
(I240
I1048
I648
tp826
as(I813
I-1468
I640
tp827
(lp828
(I-44
I-1518
I608
tp829
as(I-560
I-305
I800
tp830
(lp831
(I-253
I-476
I800
tp832
as(I-381
I-929
I640
tp833
(lp834
(I223
I-1495
I623
tp835
as(I-352
I-1207
I608
tp836
(lp837
(I-508
I-1544
I608
tp838
as(I-1083
I-1105
I800
tp839
(lp840
(I-841
I-1598
I704
tp841
as(I-242
I-915
I640
tp842
(lp843
(I-309
I-1365
I608
tp844
as(I419
I178
I648
tp845
(lp846
(I407
I-397
I648
tp847
a(I-92
I-852
I640
tp848
as(I124
I1123
I616
tp849
(lp850
(I-1561
I1912
I632
tp851
asg430
(lp852
g428
as(I-247
I-65
I800
tp853
(lp854
(I90
I94
I650
tp855
as(I697
I1064
I648
tp856
(lp857
(I-514
I773
I616
tp858
as(I-1269
I-239
I608
tp859
(lp860
(I-1208
I432
I824
tp861
as(I882
I-735
I648
tp862
(lp863
(I809
I-675
I648
tp864
a(I528
I-723
I646
tp865
as(I949
I-1250
I661
tp866
(lp867
(I1054
I-1138
I640
tp868
as(I-1652
I-132
I612
tp869
(lp870
(I-1567
I-86
I654
tp871
as(I-375
I-1447
I608
tp872
(lp873
(I165
I-1591
I614
tp874
as(I-281
I-804
I640
tp875
(lp876
(I0
I-1999
I608
tp877
as(I0
I936
I616
tp878
(lp879
(I34
I1336
I616
tp880
as(I-600
I-1587
I608
tp881
(lp882
(I-359
I-1376
I608
tp883
as(I-1671
I-101
I612
tp884
(lp885
(I-1155
I-75
I608
tp886
as(I734
I-151
I650
tp887
(lp888
(I596
I544
I668
tp889
as(I-1017
I363
I800
tp890
(lp891
(I-1530
I-209
I608
tp892
as(I-325
I-425
I640
tp893
(lp894
(I10
I24
I648
tp895
as(I828
I-360
I648
tp896
(lp897
(I1079
I-887
I640
tp898
ag80
asg225
(lp899
g223
as(I-1260
I-671
I800
tp900
(lp901
(I-952
I-857
I800
tp902
asg315
(lp903
g313
asg532
(lp904
g530
asg394
(lp905
g392
asg848
(lp906
(I419
I178
I648
tp907
as(I-1068
I450
I800
tp908
(lp909
(I-1110
I156
I729
tp910
as(I-146
I1037
I616
tp911
(lp912
(I-50
I915
I616
tp913
as(I-233
I-1027
I640
tp914
(lp915
(I-303
I-891
I640
tp916
as(I149
I1032
I648
tp917
(lp918
(I685
I622
I648
tp919
as(I572
I721
I648
tp920
(lp921
(I279
I791
I648
tp922
as(I-1046
I-1203
I800
tp923
(lp924
(I-964
I-1346
I797
tp925
as(I337
I-666
I660
tp926
(lp927
(I74
I-684
I742
tp928
as(I935
I-1494
I640
tp929
(lp930
(I1042
I-1654
I640
tp931
as(I305
I-355
I648
tp932
(lp933
(I641
I354
I650
tp934
as(I-84
I1009
I616
tp935
(lp936
(I638
I1114
I648
tp937
a(I120
I983
I648
tp938
asg447
(lp939
(I-427
I-1281
I608
tp940
as(I-937
I-1267
I800
tp941
(lp942
(I-1119
I-1074
I800
tp943
as(I1090
I-1535
I640
tp944
(lp945
(I-355
I-1677
I608
tp946
asg88
(lp947
g86
as(I-85
I-924
I640
tp948
(lp949
(I65
I-860
I644
tp950
as(I-1082
I1020
I796
tp951
(lp952
(I-122
I1117
I616
tp953
as(I1081
I-1581
I640
tp954
(lp955
(I-165
I-1492
I608
tp956
a(I820
I-1398
I640
tp957
as(I825
I-1233
I640
tp958
(lp959
(I1132
I-1211
I640
tp960
as(I-1323
I367
I800
tp961
(lp962
(I-1403
I561
I800
tp963
as(I-522
I-1515
I608
tp964
(lp965
(I-219
I-958
I640
tp966
as(I-275
I2076
I993
tp967
(lp968
(I891
I-128
I648
tp969
a(I730
I-1596
I648
tp970
a(I304
I2088
I636
tp971
a(I1131
I-1214
I640
tp972
as(I-1429
I-208
I800
tp973
(lp974
(I-329
I-358
I800
tp975
as(I-312
I-336
I800
tp976
(lp977
(I-255
I-415
I800
tp978
as(I893
I-627
I648
tp979
(lp980
(I746
I-684
I640
tp981
as(I-870
I-183
I800
tp982
(lp983
(I-1299
I839
I800
tp984
as(I-325
I-327
I640
tp985
(lp986
(I25
I-169
I648
tp987
as(I-441
I-1496
I608
tp988
(lp989
(I466
I-1516
I640
tp990
as(I93
I109
I650
tp991
(lp992
(I-209
I-321
I648
tp993
as(I551
I-204
I650
tp994
(lp995
(I-291
I-122
I800
tp996
as(I-1151
I273
I814
tp997
(lp998
(I-1219
I30
I643
tp999
as(I-930
I-192
I800
tp1000
(lp1001
(I-672
I-73
I800
tp1002
as(I514
I1044
I648
tp1003
(lp1004
(I681
I429
I654
tp1005
as(I1000
I-1246
I666
tp1006
(lp1007
(I1070
I-1112
I640
tp1008
asg266
(lp1009
g264
as(I-640
I-314
I608
tp1010
(lp1011
(I-1675
I-273
I616
tp1012
as(I-1002
I-455
I800
tp1013
(lp1014
(I-968
I-1367
I783
tp1015
as(I-68
I-849
I640
tp1016
(lp1017
(I434
I-795
I647
tp1018
asg764
(lp1019
g762
as(I-1129
I42
I643
tp1020
(lp1021
(I-950
I-162
I608
tp1022
as(I-37
I-821
I640
tp1023
(lp1024
(I-225
I-997
I640
tp1025
as(I-1178
I452
I800
tp1026
(lp1027
(I-1383
I762
I800
tp1028
as(I684
I355
I650
tp1029
(lp1030
(I204
I192
I648
tp1031
as(I-1152
I-7
I608
tp1032
(lp1033
(I-1642
I-176
I612
tp1034
as(I32
I1407
I616
tp1035
(lp1036
(I331
I2074
I636
tp1037
as(I-1230
I975
I796
tp1038
(lp1039
(I-1139
I1038
I796
tp1040
as(I44
I1350
I616
tp1041
(lp1042
(I405
I1221
I616
tp1043
a(I189
I781
I648
tp1044
as(I161
I-1918
I608
tp1045
(lp1046
(I-258
I-1017
I640
tp1047
as(I119
I-1843
I608
tp1048
(lp1049
(I-112
I-1466
I608
tp1050
as(I-1619
I456
I800
tp1051
(lp1052
(I-1356
I707
I800
tp1053
as(I-453
I-52
I640
tp1054
(lp1055
(I725
I-259
I650
tp1056
asg403
(lp1057
g401
asg1044
(lp1058
(I44
I1350
I616
tp1059
a(I504
I742
I648
tp1060
a(I-1150
I1148
I796
tp1061
as(I-1347
I-193
I800
tp1062
(lp1063
(I-1222
I109
I703
tp1064
as(I-218
I-249
I800
tp1065
(lp1066
(I768
I447
I648
tp1067
as(I-811
I-64
I608
tp1068
(lp1069
(I-1026
I75
I745
tp1070
as(I253
I576
I648
tp1071
(lp1072
(I833
I-361
I648
tp1073
as(I566
I764
I648
tp1074
(lp1075
(I649
I633
I648
tp1076
as(I-1072
I1031
I796
tp1077
(lp1078
(I-349
I690
I800
tp1079
as(I920
I-327
I648
tp1080
(lp1081
(I422
I512
I648
tp1082
as(I32
I-1856
I608
tp1083
(lp1084
(I-273
I-1073
I636
tp1085
a(I272
I565
I648
tp1086
as(I-1372
I354
I800
tp1087
(lp1088
(I-1059
I399
I800
tp1089
as(I-1575
I-320
I608
tp1090
(lp1091
(I-773
I75
I800
tp1092
as(I497
I1060
I648
tp1093
(lp1094
(I348
I895
I648
tp1095
as(I1085
I-1535
I640
tp1096
(lp1097
(I715
I-1390
I640
tp1098
a(I186
I-1550
I617
tp1099
as(I-1149
I813
I800
tp1100
(lp1101
(I-1179
I636
I800
tp1102
as(I-1657
I270
I800
tp1103
(lp1104
(I-1184
I450
I800
tp1105
as(I-1184
I-894
I800
tp1106
(lp1107
(I-927
I-1314
I800
tp1108
as(I452
I-662
I650
tp1109
(lp1110
(I591
I-953
I640
tp1111
as(I751
I-982
I640
tp1112
(lp1113
(I1043
I-1227
I652
tp1114
a(I954
I-1180
I640
tp1115
as(I-2
I1212
I616
tp1116
(lp1117
(I-13
I649
I652
tp1118
as(I-284
I-126
I800
tp1119
(lp1120
(I478
I324
I648
tp1121
asg740
(lp1122
g738
as(I-901
I-1302
I800
tp1123
(lp1124
(I-1199
I-682
I800
tp1125
as(I-305
I-371
I800
tp1126
(lp1127
(I-634
I280
I800
tp1128
as(I610
I-229
I650
tp1129
(lp1130
(I383
I-142
I648
tp1131
as(I-315
I-454
I640
tp1132
(lp1133
(I-276
I-517
I640
tp1134
as(I-84
I-861
I640
tp1135
(lp1136
(I267
I-707
I645
tp1137
as(I381
I1492
I616
tp1138
(lp1139
(I256
I1520
I616
tp1140
as(I26
I-1466
I608
tp1141
(lp1142
(I-472
I-1220
I608
tp1143
as(I-1727
I516
I800
tp1144
(lp1145
(I-1272
I452
I800
tp1146
a(I-1244
I348
I800
tp1147
as(I-409
I-325
I640
tp1148
(lp1149
(I-288
I-768
I640
tp1150
as(I917
I-590
I648
tp1151
(lp1152
(I468
I116
I686
tp1153
ag353
as(I-300
I-346
I800
tp1154
(lp1155
(I-405
I-499
I800
tp1156
as(I-137
I-749
I800
tp1157
(lp1158
(I637
I-631
I656
tp1159
asg418
(lp1160
g416
a(I260
I-781
I643
tp1161
as(I-246
I-1091
I627
tp1162
(lp1163
(I-397
I-345
I640
tp1164
as(I985
I-1455
I640
tp1165
(lp1166
(I64
I-1587
I608
tp1167
as(I622
I-1586
I640
tp1168
(lp1169
(I548
I-1608
I640
tp1170
as(I-1538
I-955
I800
tp1171
(lp1172
(I-1500
I238
I800
tp1173
as(I-206
I-1253
I608
tp1174
(lp1175
(I-314
I-383
I640
tp1176
as(I-597
I1325
I616
tp1177
(lp1178
(I-84
I980
I616
tp1179
as(I-1146
I241
I792
tp1180
(lp1181
(I-1194
I527
I800
tp1182
as(I194
I126
I678
tp1183
(lp1184
(I778
I-161
I650
tp1185
as(I714
I-1543
I640
tp1186
(lp1187
(I818
I-1169
I640
tp1188
as(I802
I-268
I650
tp1189
(lp1190
(I482
I-248
I648
tp1191
as(I-280
I-1486
I608
tp1192
(lp1193
(I-683
I-1592
I616
tp1194
as(I-129
I-692
I800
tp1195
(lp1196
(I415
I-783
I652
tp1197
as(I715
I-1396
I640
tp1198
(lp1199
(I1129
I-1660
I670
tp1200
as(I-917
I-1498
I787
tp1201
(lp1202
(I-1499
I-535
I800
tp1203
a(I707
I-1487
I640
tp1204
as(I440
I1458
I616
tp1205
(lp1206
(I333
I1459
I616
tp1207
a(I270
I1463
I616
tp1208
as(I-1496
I408
I800
tp1209
(lp1210
(I-1493
I-449
I800
tp1211
as(I-1532
I-487
I800
tp1212
(lp1213
(I-1533
I161
I800
tp1214
a(I-1521
I132
I800
tp1215
a(I-1503
I381
I800
tp1216
as(I-1295
I-256
I800
tp1217
(lp1218
(I-1374
I877
I800
tp1219
as(I-1336
I-260
I608
tp1220
(lp1221
(I-1700
I-121
I615
tp1222
asg388
(lp1223
g386
as(I-1667
I-92
I612
tp1224
(lp1225
(I-766
I-133
I608
tp1226
as(I236
I-1564
I626
tp1227
(lp1228
(I621
I-1524
I640
tp1229
as(I-952
I-284
I608
tp1230
(lp1231
(I-1639
I-276
I612
tp1232
a(I-1671
I-282
I616
tp1233
as(I-609
I1011
I655
tp1234
(lp1235
(I-190
I908
I616
tp1236
as(I-1028
I-1154
I800
tp1237
(lp1238
(I-995
I-971
I801
tp1239
as(I-89
I-710
I800
tp1240
(lp1241
(I922
I-641
I648
tp1242
as(I-1567
I-89
I608
tp1243
(lp1244
(I-1016
I-308
I608
tp1245
as(I491
I1042
I648
tp1246
(lp1247
(I567
I751
I648
tp1248
as(I294
I232
I648
tp1249
(lp1250
(I818
I-287
I649
tp1251
asg331
(lp1252
g329
as(I-1113
I996
I796
tp1253
(lp1254
(I706
I1072
I648
tp1255
as(I508
I1134
I648
tp1256
(lp1257
(I551
I730
I648
tp1258
as(I-330
I-1333
I608
tp1259
(lp1260
(I-300
I-1328
I608
tp1261
asg110
(lp1262
g108
as(I-54
I668
I647
tp1263
(lp1264
(I-102
I708
I633
tp1265
as(I-553
I-1557
I608
tp1266
(lp1267
(I-327
I-1205
I608
tp1268
as(I-1386
I766
I800
tp1269
(lp1270
(I-687
I-264
I800
tp1271
as(I-125
I-1404
I608
tp1272
(lp1273
(I-232
I-953
I640
tp1274
asg561
(lp1275
g559
as(I-1003
I61
I667
tp1276
(lp1277
(I-1367
I-10
I608
tp1278
as(I-333
I-389
I640
tp1279
(lp1280
(I-282
I-1060
I640
tp1281
as(I-377
I-1361
I608
tp1282
(lp1283
(I455
I-1512
I640
tp1284
as(I80
I1936
I608
tp1285
(lp1286
(I90
I-1557
I608
tp1287
a(I139
I-1592
I609
tp1288
as(I-967
I-1437
I737
tp1289
(lp1290
(I-995
I-1426
I749
tp1291
as(I-231
I-1433
I608
tp1292
(lp1293
(I595
I-1504
I640
tp1294
as(I111
I1238
I616
tp1295
(lp1296
(I-88
I-81
I648
tp1297
asg844
(lp1298
g842
as(I601
I727
I648
tp1299
(lp1300
(I670
I534
I648
tp1301
as(I248
I1688
I608
tp1302
(lp1303
(I588
I1226
I648
tp1304
as(I-1295
I1018
I796
tp1305
(lp1306
(I-1243
I877
I800
tp1307
as(I814
I78
I650
tp1308
(lp1309
(I395
I-414
I648
tp1310
as(I-813
I1114
I706
tp1311
(lp1312
(I-427
I817
I617
tp1313
as(I-1430
I-367
I800
tp1314
(lp1315
(I-1499
I-611
I800
tp1316
as(I-239
I-1234
I608
tp1317
(lp1318
(I116
I-1859
I608
tp1319
as(I-210
I-840
I640
tp1320
(lp1321
(I227
I-827
I640
tp1322
asg928
(lp1323
g926
as(I-1278
I-296
I800
tp1324
(lp1325
(I-1108
I-304
I800
tp1326
as(I-1530
I158
I800
tp1327
(lp1328
(I-1145
I1100
I796
tp1329
as(I-267
I-964
I640
tp1330
(lp1331
(I-234
I-940
I640
tp1332
as(I-287
I-510
I640
tp1333
(lp1334
(I-385
I-66
I640
tp1335
asg558
(lp1336
g556
asg585
(lp1337
g583
as(I-1198
I-130
I608
tp1338
(lp1339
(I-1166
I356
I800
tp1340
as(I-1142
I1057
I796
tp1341
(lp1342
(I-74
I2063
I780
tp1343
as(I160
I-1522
I613
tp1344
(lp1345
(I711
I-1488
I640
tp1346
as(I-293
I-241
I800
tp1347
(lp1348
(I274
I179
I648
tp1349
as(I-301
I-1259
I608
tp1350
(lp1351
(I-240
I-1094
I625
tp1352
as(I139
I309
I648
tp1353
(lp1354
(I-26
I1150
I616
tp1355
as(I-876
I415
I800
tp1356
(lp1357
(I-1207
I211
I779
tp1358
as(I-889
I463
I800
tp1359
(lp1360
(I-193
I-221
I810
tp1361
as(I327
I-1644
I640
tp1362
(lp1363
(I341
I-1587
I640
tp1364
as(I-1139
I1044
I796
tp1365
(lp1366
(I-1361
I725
I800
tp1367
as(I-225
I-545
I800
tp1368
(lp1369
(I330
I-549
I648
tp1370
as(I-1224
I-895
I800
tp1371
(lp1372
(I-1084
I-1023
I801
tp1373
as(I-1104
I709
I800
tp1374
(lp1375
(I-1364
I836
I800
tp1376
as(I-1434
I529
I800
tp1377
(lp1378
(I-1668
I-113
I800
tp1379
as(I-448
I-1127
I608
tp1380
(lp1381
(I-510
I-1640
I608
tp1382
as(I-196
I1308
I616
tp1383
(lp1384
(I518
I705
I648
tp1385
as(I-1421
I840
I800
tp1386
(lp1387
(I-1532
I1036
I796
tp1388
asg58
(lp1389
g56
as(I746
I-1014
I640
tp1390
(lp1391
(I859
I-1496
I640
tp1392
as(I263
I-1970
I608
tp1393
(lp1394
(I-696
I-1540
I624
tp1395
asg978
(lp1396
g976
as(I-1234
I1055
I796
tp1397
(lp1398
(I-13
I1058
I616
tp1399
as(I-194
I-952
I640
tp1400
(lp1401
(I50
I-846
I640
tp1402
as(I635
I714
I648
tp1403
(lp1404
(I532
I242
I650
tp1405
as(I459
I1011
I648
tp1406
(lp1407
(I426
I-749
I646
tp1408
as(I142
I-1483
I624
tp1409
(lp1410
(I36
I-1486
I608
tp1411
as(I29
I-170
I648
tp1412
(lp1413
(I-144
I-1
I648
tp1414
as(I335
I2115
I636
tp1415
(lp1416
(I275
I2137
I636
tp1417
as(I-184
I-1338
I608
tp1418
(lp1419
(I-337
I-632
I640
tp1420
as(I-938
I-1490
I704
tp1421
(lp1422
(I-894
I-1546
I704
tp1423
asg613
(lp1424
(I825
I-688
I648
tp1425
as(I-941
I-1460
I723
tp1426
(lp1427
(I-880
I-1086
I800
tp1428
as(I-1471
I-603
I800
tp1429
(lp1430
(I-1399
I837
I800
tp1431
as(I86
I1782
I608
tp1432
(lp1433
(I-1150
I1130
I796
tp1434
as(I-437
I-1622
I608
tp1435
(lp1436
(I-175
I-906
I640
tp1437
a(I751
I-1429
I640
tp1438
as(I1132
I-1212
I640
tp1439
(lp1440
(I842
I-1296
I640
tp1441
asg1031
(lp1442
g1029
asg913
(lp1443
g911
as(I-406
I-1690
I608
tp1444
(lp1445
(I-696
I-1581
I624
tp1446
as(I-182
I-952
I640
tp1447
(lp1448
(I-558
I-1635
I608
tp1449
as(I935
I-274
I648
tp1450
(lp1451
(I1043
I-1025
I640
tp1452
as(I339
I-1795
I604
tp1453
(lp1454
(I555
I-1895
I608
tp1455
as(I-1390
I-294
I800
tp1456
(lp1457
(I-806
I-233
I800
tp1458
as(I-410
I-88
I640
tp1459
(lp1460
(I-317
I-667
I640
tp1461
as(I-1086
I494
I800
tp1462
(lp1463
(I-1452
I1265
I757
tp1464
as(I-1475
I-535
I800
tp1465
(lp1466
(I-1504
I370
I800
tp1467
as(I-1271
I1280
I768
tp1468
(lp1469
(I-1090
I1777
I608
tp1470
asg1105
(lp1471
g1103
as(I-1246
I931
I812
tp1472
(lp1473
(I-1600
I1581
I608
tp1474
as(I-102
I-1422
I608
tp1475
(lp1476
(I-285
I-1207
I608
tp1477
as(I1112
I-1621
I640
tp1478
(lp1479
(I712
I-1416
I640
tp1480
as(I-1126
I-1130
I800
tp1481
(lp1482
(I-1081
I-967
I801
tp1483
asg786
(lp1484
g784
as(I-263
I-366
I800
tp1485
(lp1486
(I342
I569
I648
tp1487
as(I-325
I-831
I640
tp1488
(lp1489
(I-354
I-760
I640
tp1490
asg1431
(lp1491
g1429
as(I88
I-1971
I608
tp1492
(lp1493
(I-24
I-1561
I639
tp1494
as(I-500
I-322
I635
tp1495
(lp1496
(I-480
I-273
I639
tp1497
as(I-573
I-249
I811
tp1498
(lp1499
(I563
I-284
I650
tp1500
as(I948
I-507
I648
tp1501
(lp1502
(I-116
I1235
I616
tp1503
as(I737
I-1449
I640
tp1504
(lp1505
(I809
I-1343
I640
tp1506
asg1222
(lp1507
g1220
as(I-7
I-1648
I608
tp1508
(lp1509
(I-744
I-1595
I656
tp1510
as(I1075
I-958
I640
tp1511
(lp1512
(I-212
I-647
I800
tp1513
as(I-1227
I1046
I796
tp1514
(lp1515
(I90
I1111
I616
tp1516
as(I-342
I-931
I640
tp1517
(lp1518
(I80
I-1847
I608
tp1519
asg1128
(lp1520
g1126
as(I-909
I1186
I730
tp1521
(lp1522
(I386
I509
I648
tp1523
as(I-935
I-1293
I800
tp1524
(lp1525
(I-1014
I-1123
I800
tp1526
as(I680
I639
I648
tp1527
(lp1528
(I572
I745
I648
tp1529
as(I-125
I-116
I648
tp1530
(lp1531
(I-288
I-61
I640
tp1532
as(I-327
I-519
I640
tp1533
(lp1534
(I82
I80
I650
tp1535
as(I618
I-147
I650
tp1536
(lp1537
(I394
I540
I648
tp1538
as(I-1504
I-607
I800
tp1539
(lp1540
(I-939
I-1182
I800
tp1541
as(I-675
I-209
I818
tp1542
(lp1543
(I839
I-317
I648
tp1544
as(I-1261
I960
I804
tp1545
(lp1546
(I-1040
I1019
I795
tp1547
as(I285
I897
I648
tp1548
(lp1549
(I-133
I1075
I616
tp1550
as(I-1432
I408
I800
tp1551
(lp1552
(I-1532
I-613
I800
tp1553
as(I-1106
I442
I800
tp1554
(lp1555
(I-1240
I309
I801
tp1556
as(I-1451
I346
I800
tp1557
(lp1558
(I-1508
I1016
I796
tp1559
as(I-161
I-74
I648
tp1560
(lp1561
(I755
I496
I648
tp1562
as(I95
I-353
I648
tp1563
(lp1564
(I376
I-389
I648
tp1565
as(I-1287
I238
I660
tp1566
(lp1567
(I-1578
I-293
I617
tp1568
as(I85
I-842
I640
tp1569
(lp1570
(I619
I-1025
I640
tp1571
as(I2
I-851
I640
tp1572
(lp1573
(I-1535
I-347
I608
tp1574
as(I937
I-310
I648
tp1575
(lp1576
(I1072
I-965
I640
tp1577
as(I701
I586
I648
tp1578
(lp1579
(I689
I-179
I650
tp1580
as(I756
I-235
I650
tp1581
(lp1582
(I-558
I-64
I620
tp1583
asg154
(lp1584
g152
as(I-1180
I666
I800
tp1585
(lp1586
(I-1083
I375
I800
tp1587
as(I-1138
I606
I800
tp1588
(lp1589
(I-826
I440
I800
tp1590
as(I-356
I-666
I640
tp1591
(lp1592
(I-378
I-121
I640
tp1593
a(I-222
I-284
I648
tp1594
as(I1116
I-863
I640
tp1595
(lp1596
(I974
I-517
I648
tp1597
asg40
(lp1598
g38
as(I-247
I-1078
I633
tp1599
(lp1600
(I-349
I-570
I640
tp1601
as(I-6
I57
I650
tp1602
(lp1603
(I704
I361
I650
tp1604
as(I-987
I404
I800
tp1605
(lp1606
(I-1370
I860
I800
tp1607
as(I-211
I-914
I640
tp1608
(lp1609
(I-331
I-1558
I608
tp1610
as(I-284
I-853
I640
tp1611
(lp1612
(I485
I-728
I648
tp1613
as(I-1285
I-65
I608
tp1614
(lp1615
(I-1319
I146
I608
tp1616
as(I-455
I-1167
I608
tp1617
(lp1618
(I-320
I-1144
I608
tp1619
as(I-751
I1039
I706
tp1620
(lp1621
(I391
I506
I648
tp1622
as(I712
I1068
I648
tp1623
(lp1624
(I712
I792
I648
tp1625
as(I634
I-1053
I640
tp1626
(lp1627
(I-4
I-783
I656
tp1628
as(I904
I-437
I648
tp1629
(lp1630
(I623
I-49
I650
tp1631
as(I-142
I-538
I800
tp1632
(lp1633
(I-147
I-574
I800
tp1634
as(I618
I732
I648
tp1635
(lp1636
(I661
I565
I648
tp1637
as(I-1191
I93
I717
tp1638
(lp1639
(I-1492
I-173
I608
tp1640
as(I396
I-511
I648
tp1641
(lp1642
(I575
I-707
I643
tp1643
as(I512
I-1530
I640
tp1644
(lp1645
(I-12
I-1404
I608
tp1646
as(I-198
I-78
I810
tp1647
(lp1648
(I426
I139
I648
tp1649
asg1015
(lp1650
g1013
as(I939
I-146
I648
tp1651
(lp1652
(I736
I-193
I650
tp1653
as(I-1083
I191
I754
tp1654
(lp1655
(I-1286
I381
I800
tp1656
as(I-871
I-1529
I704
tp1657
(lp1658
(I-745
I-1563
I656
tp1659
asg433
(lp1660
g431
as(I367
I-440
I648
tp1661
(lp1662
(I58
I65
I649
tp1663
as(I43
I-1453
I608
tp1664
(lp1665
(I1092
I-1536
I640
tp1666
as(I663
I382
I658
tp1667
(lp1668
(I823
I-456
I648
tp1669
ag374
as(I-1002
I1071
I776
tp1670
(lp1671
(I-1234
I1062
I796
tp1672
as(I788
I-1274
I640
tp1673
(lp1674
(I1045
I-891
I640
tp1675
as(I-1501
I1576
I608
tp1676
(lp1677
(I-1451
I1165
I789
tp1678
as(I-1232
I-184
I608
tp1679
(lp1680
(I-961
I352
I800
tp1681
as(I-301
I-161
I640
tp1682
(lp1683
(I97
I155
I648
tp1684
as(I-1057
I-277
I608
tp1685
(lp1686
(I-1639
I-314
I612
tp1687
a(I-1642
I-167
I612
tp1688
as(I-919
I-336
I608
tp1689
(lp1690
(I-1308
I414
I800
tp1691
as(I607
I-726
I647
tp1692
(lp1693
(I-318
I-898
I640
tp1694
as(I218
I-905
I640
tp1695
(lp1696
(I947
I-711
I648
tp1697
as(I-894
I-669
I800
tp1698
(lp1699
(I-1365
I-581
I803
tp1700
as(I691
I434
I648
tp1701
(lp1702
(I637
I63
I650
tp1703
as(I-647
I1146
I675
tp1704
(lp1705
(I-1565
I1914
I632
tp1706
as(I-152
I843
I616
tp1707
(lp1708
(I-746
I891
I800
tp1709
asg1316
(lp1710
g1314
as(I370
I313
I648
tp1711
(lp1712
(I-251
I-167
I800
tp1713
as(I-1240
I201
I772
tp1714
(lp1715
(I-1208
I528
I800
tp1716
as(I-801
I136
I800
tp1717
(lp1718
(I-1216
I129
I717
tp1719
as(I731
I-1485
I640
tp1720
(lp1721
(I877
I-1206
I640
tp1722
as(I-1698
I510
I800
tp1723
(lp1724
(I-1367
I856
I800
tp1725
a(I-1268
I628
I800
tp1726
as(I578
I1276
I648
tp1727
(lp1728
(I-1149
I1011
I796
tp1729
as(I-1482
I251
I800
tp1730
(lp1731
(I-1261
I795
I800
tp1732
a(I-1243
I877
I800
tp1733
as(I197
I-744
I653
tp1734
(lp1735
(I665
I-782
I640
tp1736
as(I-1221
I799
I800
tp1737
(lp1738
(I-1250
I460
I800
tp1739
as(I-1171
I443
I800
tp1740
(lp1741
(I-540
I345
I801
tp1742
as(I627
I208
I650
tp1743
(lp1744
(I836
I-285
I648
tp1745
asg462
(lp1746
g460
asg1297
(lp1747
g1295
a(I379
I-355
I648
tp1748
a(I-488
I-83
I640
tp1749
as(I-223
I-1736
I608
tp1750
(lp1751
(I-914
I-1510
I704
tp1752
as(I-1700
I-91
I616
tp1753
(lp1754
(I-1099
I-44
I608
tp1755
asg343
(lp1756
g341
as(I-331
I-403
I800
tp1757
(lp1758
(I-1116
I-201
I800
tp1759
asg18
(lp1760
g16
as(I-1560
I26
I608
tp1761
(lp1762
(I-1633
I-346
I650
tp1763
as(I547
I-1024
I640
tp1764
(lp1765
(I686
I-1170
I640
tp1766
asg1437
(lp1767
g1435
as(I580
I-1854
I608
tp1768
(lp1769
(I800
I-1339
I640
tp1770
as(I-1155
I-912
I804
tp1771
(lp1772
(I-1014
I-1138
I800
tp1773
asg37
(lp1774
g35
as(I-16
I-1967
I608
tp1775
(lp1776
(I-113
I1053
I616
tp1777
asg1278
(lp1778
g1276
asg228
(lp1779
g226
as(I-256
I-976
I640
tp1780
(lp1781
(I50
I-846
I640
tp1782
as(I-413
I-1186
I608
tp1783
(lp1784
(I-200
I-916
I640
tp1785
as(I-861
I-1524
I704
tp1786
(lp1787
(I-915
I-1468
I716
tp1788
as(I-173
I-552
I800
tp1789
(lp1790
(I-307
I-557
I827
tp1791
as(I-758
I273
I800
tp1792
(lp1793
(I-1064
I352
I800
tp1794
as(I-542
I1009
I622
tp1795
(lp1796
(I-542
I723
I618
tp1797
as(I-164
I-1063
I800
tp1798
(lp1799
(I-180
I-965
I800
tp1800
as(I217
I1011
I648
tp1801
(lp1802
(I712
I1031
I648
tp1803
as(I-109
I-170
I648
tp1804
(lp1805
(I-56
I-78
I648
tp1806
asg367
(lp1807
g365
as(I-231
I-1711
I608
tp1808
(lp1809
(I-870
I-1529
I704
tp1810
as(I-496
I-1532
I608
tp1811
(lp1812
(I-40
I-1466
I608
tp1813
as(I-46
I-883
I640
tp1814
(lp1815
(I-496
I-1268
I608
tp1816
asg282
(lp1817
g280
asg1622
(lp1818
g1620
as(I-182
I-816
I800
tp1819
(lp1820
(I620
I-1053
I640
tp1821
as(I639
I-1471
I640
tp1822
(lp1823
(I193
I-1475
I619
tp1824
as(I-887
I298
I800
tp1825
(lp1826
(I-432
I-405
I800
tp1827
as(I-1078
I-43
I608
tp1828
(lp1829
(I-327
I-850
I643
tp1830
as(I-74
I778
I616
tp1831
(lp1832
(I156
I1000
I649
tp1833
as(I-164
I-1421
I608
tp1834
(lp1835
(I-233
I-1111
I618
tp1836
as(I-320
I-555
I640
tp1837
(lp1838
(I-311
I-572
I640
tp1839
as(I-454
I61
I800
tp1840
(lp1841
(I-1457
I2
I800
tp1842
as(I-478
I977
I616
tp1843
(lp1844
(I-147
I783
I616
tp1845
asg1185
(lp1846
g1183
as(I596
I207
I650
tp1847
(lp1848
(I-266
I-44
I800
tp1849
as(I184
I1005
I649
tp1850
(lp1851
(I-360
I1121
I616
tp1852
as(I910
I-274
I659
tp1853
(lp1854
(I790
I-145
I650
tp1855
as(I-620
I-1533
I608
tp1856
(lp1857
(I-636
I-1524
I608
tp1858
asg370
(lp1859
g368
as(I-1116
I634
I800
tp1860
(lp1861
(I-1314
I1277
I756
tp1862
as(I-312
I-671
I640
tp1863
(lp1864
(I-150
I-1442
I608
tp1865
as(I-166
I-981
I640
tp1866
(lp1867
(I-554
I-1745
I608
tp1868
as(I489
I768
I648
tp1869
(lp1870
(I562
I1089
I648
tp1871
as(I-369
I991
I616
tp1872
(lp1873
(I461
I1050
I648
tp1874
as(I-802
I-110
I608
tp1875
(lp1876
(I-983
I62
I667
tp1877
as(I-4
I1016
I616
tp1878
(lp1879
(I178
I995
I648
tp1880
as(I702
I-1512
I640
tp1881
(lp1882
(I224
I-1622
I624
tp1883
a(I414
I-739
I644
tp1884
as(I-288
I-951
I800
tp1885
(lp1886
(I0
I-761
I817
tp1887
as(I-1425
I-662
I800
tp1888
(lp1889
(I-1508
I-385
I800
tp1890
as(I-1125
I207
I768
tp1891
(lp1892
(I-1217
I776
I800
tp1893
as(I865
I-1098
I640
tp1894
(lp1895
(I1087
I-1214
I640
tp1896
asg1322
(lp1897
g1320
as(I-1549
I-957
I800
tp1898
(lp1899
(I-1142
I-879
I800
tp1900
as(I-326
I-928
I640
tp1901
(lp1902
(I-365
I-529
I640
tp1903
as(I-1235
I792
I800
tp1904
(lp1905
(I-1274
I394
I800
tp1906
as(I508
I-166
I648
tp1907
(lp1908
(I-37
I-116
I648
tp1909
as(I-943
I-1225
I800
tp1910
(lp1911
(I-1037
I-940
I800
tp1912
asg1597
(lp1913
g1595
as(I-409
I-1387
I608
tp1914
(lp1915
(I805
I-1778
I608
tp1916
asg373
(lp1917
g371
as(I-284
I-524
I640
tp1918
(lp1919
(I-309
I-487
I640
tp1920
as(I-400
I92
I800
tp1921
(lp1922
(I-1022
I503
I800
tp1923
asg1713
(lp1924
g1711
as(I1064
I-1181
I640
tp1925
(lp1926
(I1043
I-1170
I640
tp1927
as(I-181
I-872
I640
tp1928
(lp1929
(I434
I-795
I647
tp1930
asg25
(lp1931
(I-1416
I1159
I791
tp1932
as(I377
I895
I648
tp1933
(lp1934
(I-51
I1023
I616
tp1935
as(I-1233
I366
I800
tp1936
(lp1937
(I-1086
I-100
I608
tp1938
as(I661
I180
I650
tp1939
(lp1940
(I114
I232
I648
tp1941
as(I597
I129
I650
tp1942
(lp1943
(I596
I-279
I650
tp1944
as(I-1259
I1272
I772
tp1945
(lp1946
(I-871
I1880
I586
tp1947
as(I-1357
I580
I800
tp1948
(lp1949
(I-919
I514
I800
tp1950
as(I-261
I-828
I640
tp1951
(lp1952
(I-356
I-525
I640
tp1953
as(I-1531
I-450
I800
tp1954
(lp1955
(I-1514
I-763
I800
tp1956
as(I-801
I-1572
I695
tp1957
(lp1958
(I-664
I-1598
I608
tp1959
as(I-314
I-595
I640
tp1960
(lp1961
(I-308
I-431
I640
tp1962
as(I448
I1038
I648
tp1963
(lp1964
(I-288
I848
I616
tp1965
as(I258
I-1485
I629
tp1966
(lp1967
(I-179
I-1410
I608
tp1968
as(I-958
I-81
I608
tp1969
(lp1970
(I-105
I-341
I648
tp1971
as(I691
I7
I650
tp1972
(lp1973
(I712
I1031
I648
tp1974
asg475
(lp1975
(I1087
I-1490
I640
tp1976
as(I403
I735
I648
tp1977
(lp1978
(I163
I947
I648
tp1979
as(I351
I848
I648
tp1980
(lp1981
(I-783
I968
I800
tp1982
as(I798
I-1239
I640
tp1983
(lp1984
(I753
I-1233
I640
tp1985
asg324
(lp1986
g322
as(I-166
I-689
I800
tp1987
(lp1988
(I-211
I-437
I800
tp1989
as(I-282
I-1091
I628
tp1990
(lp1991
(I22
I-1704
I608
tp1992
asg1968
(lp1993
g1966
as(I-1125
I997
I796
tp1994
(lp1995
(I-33
I1379
I616
tp1996
as(I-1412
I-719
I800
tp1997
(lp1998
(I-861
I-1185
I800
tp1999
as(I-262
I1575
I608
tp2000
(lp2001
(I-825
I1414
I616
tp2002
as(I445
I-1501
I640
tp2003
(lp2004
(I226
I-1493
I624
tp2005
as(I-300
I-1346
I608
tp2006
(lp2007
(I-107
I-1478
I608
tp2008
asg1684
(lp2009
g1682
as(I1037
I-1152
I640
tp2010
(lp2011
(I814
I-1231
I640
tp2012
asg548
(lp2013
g546
asg1920
(lp2014
g1918
as(I-1612
I-232
I800
tp2015
(lp2016
(I-1725
I167
I800
tp2017
as(I-233
I-587
I640
tp2018
(lp2019
(I-126
I-1605
I608
tp2020
as(I475
I-249
I648
tp2021
(lp2022
(I-21
I-458
I650
tp2023
as(I-1095
I520
I800
tp2024
(lp2025
(I-1220
I982
I796
tp2026
asg244
(lp2027
g242
as(I-1562
I1915
I632
tp2028
(lp2029
(I-1226
I832
I800
tp2030
as(I-1533
I161
I800
tp2031
(lp2032
(I-1540
I-373
I800
tp2033
ag1212
as(I599
I320
I650
tp2034
(lp2035
(I44
I29
I648
tp2036
as(I-1352
I1313
I733
tp2037
(lp2038
(I-1194
I1392
I676
tp2039
asg1382
(lp2040
g1380
as(I49
I2091
I761
tp2041
(lp2042
(I-1455
I1563
I609
tp2043
as(I-27
I2034
I780
tp2044
(lp2045
(I-1276
I1040
I796
tp2046
asg1513
(lp2047
g1511
asg234
(lp2048
g232
as(I-297
I1060
I616
tp2049
(lp2050
(I645
I123
I650
tp2051
as(I424
I-1898
I608
tp2052
(lp2053
(I881
I-1790
I608
tp2054
asg1732
(lp2055
g1730
as(I-1525
I-462
I800
tp2056
(lp2057
(I-1504
I-429
I800
tp2058
as(I-972
I-1133
I800
tp2059
(lp2060
(I-1498
I-612
I800
tp2061
as(I-278
I-340
I640
tp2062
(lp2063
(I-94
I-337
I648
tp2064
as(I-776
I2131
I780
tp2065
(lp2066
(I-1392
I924
I800
tp2067
as(I-1096
I278
I800
tp2068
(lp2069
(I-1450
I-239
I608
tp2070
as(I-126
I-824
I649
tp2071
(lp2072
(I624
I-979
I640
tp2073
as(I-1393
I1265
I752
tp2074
(lp2075
(I-1367
I883
I800
tp2076
as(I-1183
I377
I800
tp2077
(lp2078
(I-1177
I-124
I608
tp2079
as(I-161
I-1740
I608
tp2080
(lp2081
(I-472
I-1613
I608
tp2082
as(I-1117
I226
I782
tp2083
(lp2084
(I-1291
I822
I800
tp2085
as(I-143
I-1200
I608
tp2086
(lp2087
(I-244
I-967
I640
tp2088
as(I-1246
I748
I800
tp2089
(lp2090
(I-1469
I1168
I788
tp2091
asg364
(lp2092
g362
asg196
(lp2093
g194
asg2073
(lp2094
g2071
as(I-688
I891
I800
tp2095
(lp2096
(I-246
I648
I800
tp2097
as(I-847
I-288
I608
tp2098
(lp2099
(I-1671
I-282
I616
tp2100
as(I-1145
I454
I800
tp2101
(lp2102
(I-1024
I1172
I787
tp2103
as(I239
I733
I648
tp2104
(lp2105
(I675
I716
I648
tp2106
as(I632
I317
I650
tp2107
(lp2108
(I768
I567
I648
tp2109
as(I344
I-538
I648
tp2110
(lp2111
(I394
I-423
I648
tp2112
asg459
(lp2113
g457
as(I446
I-687
I651
tp2114
(lp2115
(I-182
I-940
I640
tp2116
as(I-1643
I-94
I612
tp2117
(lp2118
(I-1375
I-3
I608
tp2119
asg1956
(lp2120
g1954
as(I711
I-1143
I640
tp2121
(lp2122
(I661
I-941
I640
tp2123
a(I1093
I-1129
I640
tp2124
as(I-53
I571
I651
tp2125
(lp2126
(I951
I-204
I648
tp2127
asg1319
(lp2128
g1317
a(I717
I-1490
I640
tp2129
as(I-211
I-415
I800
tp2130
(lp2131
(I-251
I-511
I800
tp2132
as(I-463
I-1416
I608
tp2133
(lp2134
(I-212
I-946
I640
tp2135
as(I-1160
I296
I800
tp2136
(lp2137
(I-1123
I187
I753
tp2138
asg511
(lp2139
g509
as(I-997
I22
I637
tp2140
(lp2141
(I-1270
I625
I800
tp2142
as(I-59
I709
I633
tp2143
(lp2144
(I-99
I1548
I608
tp2145
as(I972
I-1205
I640
tp2146
(lp2147
(I902
I-1172
I640
tp2148
a(I752
I-1461
I640
tp2149
as(I-199
I642
I800
tp2150
(lp2151
(I536
I90
I707
tp2152
as(I756
I-1365
I640
tp2153
(lp2154
(I826
I-1132
I640
tp2155
as(I383
I507
I648
tp2156
(lp2157
(I-128
I2021
I780
tp2158
as(I-1360
I-902
I800
tp2159
(lp2160
(I-1547
I-958
I800
tp2161
asg1562
(lp2162
g1560
as(I600
I712
I648
tp2163
(lp2164
(I74
I1078
I623
tp2165
as(I210
I-693
I649
tp2166
(lp2167
(I319
I-949
I640
tp2168
as(I637
I-1094
I640
tp2169
(lp2170
(I401
I-622
I651
tp2171
as(I364
I-1488
I640
tp2172
(lp2173
(I1079
I-1539
I640
tp2174
as(I13
I-836
I640
tp2175
(lp2176
(I392
I-785
I648
tp2177
as(I-592
I-1623
I608
tp2178
(lp2179
(I-125
I-1394
I608
tp2180
as(I-1217
I985
I796
tp2181
(lp2182
(I-1657
I60
I800
tp2183
as(I-1217
I147
I731
tp2184
(lp2185
(I-1181
I307
I801
tp2186
as(I-278
I-1076
I634
tp2187
(lp2188
(I401
I-1034
I640
tp2189
a(I10
I-830
I640
tp2190
as(I-426
I1010
I616
tp2191
(lp2192
(I-277
I751
I804
tp2193
as(I439
I875
I648
tp2194
(lp2195
(I632
I1111
I648
tp2196
as(I722
I39
I650
tp2197
(lp2198
(I-381
I-263
I800
tp2199
as(I69
I1182
I616
tp2200
(lp2201
(I123
I1035
I647
tp2202
as(I410
I-596
I652
tp2203
(lp2204
(I655
I-797
I639
tp2205
a(I335
I-657
I661
tp2206
a(I330
I-670
I659
tp2207
as(I851
I-428
I648
tp2208
(lp2209
(I1062
I-786
I648
tp2210
as(I-1484
I-218
I800
tp2211
(lp2212
(I-1011
I172
I750
tp2213
as(I78
I595
I648
tp2214
(lp2215
(I-589
I1095
I646
tp2216
as(I-291
I-481
I800
tp2217
(lp2218
(I-1016
I316
I801
tp2219
as(I-1639
I-160
I612
tp2220
(lp2221
(I-1291
I-136
I629
tp2222
as(I341
I547
I648
tp2223
(lp2224
(I-417
I920
I616
tp2225
asg172
(lp2226
g170
as(I-10
I-1989
I608
tp2227
(lp2228
(I-19
I-1815
I608
tp2229
as(I506
I86
I648
tp2230
(lp2231
(I-263
I-232
I800
tp2232
as(I184
I279
I648
tp2233
(lp2234
(I-55
I614
I648
tp2235
as(I-30
I-1448
I608
tp2236
(lp2237
(I-443
I-1547
I608
tp2238
as(I-1016
I156
I744
tp2239
(lp2240
(I-804
I366
I800
tp2241
asg2058
(lp2242
g2056
asg808
(lp2243
g806
as(I-1527
I-397
I800
tp2244
(lp2245
(I-1243
I-696
I800
tp2246
as(I-145
I-746
I800
tp2247
(lp2248
(I-114
I-752
I800
tp2249
as(I-768
I880
I800
tp2250
(lp2251
(I-1087
I963
I804
tp2252
asg1593
(lp2253
g1591
as(I-1224
I190
I763
tp2254
(lp2255
(I-1335
I-184
I800
tp2256
a(I-1227
I661
I800
tp2257
asg1332
(lp2258
g1330
as(I137
I174
I648
tp2259
(lp2260
(I-367
I-152
I640
tp2261
as(I-753
I-1591
I662
tp2262
(lp2263
(I-883
I-1553
I704
tp2264
as(I70
I10
I648
tp2265
(lp2266
(I153
I357
I648
tp2267
as(I947
I-490
I648
tp2268
(lp2269
(I1063
I-1022
I640
tp2270
as(I-1440
I362
I800
tp2271
(lp2272
(I-1266
I707
I800
tp2273
as(I591
I-1065
I640
tp2274
(lp2275
(I859
I-1496
I640
tp2276
as(I-329
I-284
I640
tp2277
(lp2278
(I-310
I-510
I640
tp2279
as(I888
I-296
I648
tp2280
(lp2281
(I-299
I-258
I640
tp2282
as(I-1466
I-39
I800
tp2283
(lp2284
(I-1468
I375
I800
tp2285
as(I-1524
I189
I800
tp2286
(lp2287
(I-1492
I410
I800
tp2288
as(I-1055
I307
I800
tp2289
(lp2290
(I-291
I372
I801
tp2291
as(I650
I1148
I648
tp2292
(lp2293
(I414
I1071
I648
tp2294
a(I601
I299
I650
tp2295
as(I-320
I-433
I640
tp2296
(lp2297
(I-75
I-1699
I608
tp2298
as(I-1505
I-981
I800
tp2299
(lp2300
(I-1211
I-889
I800
tp2301
asg1681
(lp2302
g1679
as(I-533
I117
I800
tp2303
(lp2304
(I-300
I189
I801
tp2305
as(I-1750
I480
I800
tp2306
(lp2307
(I-1355
I420
I800
tp2308
a(I-1311
I409
I800
tp2309
asg1288
(lp2310
(I80
I1936
I608
tp2311
as(I-1105
I1008
I796
tp2312
(lp2313
(I484
I1939
I608
tp2314
as(I-1194
I604
I800
tp2315
(lp2316
(I-1373
I589
I800
tp2317
as(I-985
I-1404
I760
tp2318
(lp2319
(I-1007
I-584
I800
tp2320
as(I-255
I-784
I668
tp2321
(lp2322
(I-355
I-740
I640
tp2323
as(I-998
I-1279
I800
tp2324
(lp2325
(I-1284
I-824
I800
tp2326
as(I-140
I626
I648
tp2327
(lp2328
(I-245
I2006
I780
tp2329
as(I428
I-821
I642
tp2330
(lp2331
(I26
I-937
I640
tp2332
as(I-1039
I-1128
I800
tp2333
(lp2334
(I-880
I-1251
I800
tp2335
as(I-290
I-56
I640
tp2336
(lp2337
(I-983
I-33
I609
tp2338
as(I-262
I-1417
I608
tp2339
(lp2340
(I-726
I-1579
I644
tp2341
as(I626
I1152
I648
tp2342
(lp2343
(I682
I1128
I648
tp2344
asg1529
(lp2345
g1527
as(I-1008
I-893
I800
tp2346
(lp2347
(I-1544
I-957
I800
tp2348
as(I1138
I-284
I648
tp2349
(lp2350
(I182
I-99
I670
tp2351
as(I-932
I-1499
I704
tp2352
(lp2353
(I-914
I-1531
I704
tp2354
asg1008
(lp2355
g1006
as(I-236
I-1371
I608
tp2356
(lp2357
(I-468
I-1479
I608
tp2358
as(I-374
I-1255
I608
tp2359
(lp2360
(I-130
I-872
I640
tp2361
as(I-260
I-306
I800
tp2362
(lp2363
(I-160
I86
I808
tp2364
asg2054
(lp2365
g2052
as(I-287
I-52
I800
tp2366
(lp2367
(I597
I-48
I650
tp2368
asg1791
(lp2369
g1789
asg1118
(lp2370
g1116
as(I1101
I-1467
I640
tp2371
(lp2372
(I1013
I-1464
I640
tp2373
as(I-1269
I840
I800
tp2374
(lp2375
(I-1555
I1609
I608
tp2376
asg1150
(lp2377
g1148
asg1040
(lp2378
g1038
asg1852
(lp2379
g1850
as(I-172
I796
I616
tp2380
(lp2381
(I145
I354
I648
tp2382
asg484
(lp2383
g482
as(I-484
I-1235
I608
tp2384
(lp2385
(I-333
I-1364
I608
tp2386
asg864
(lp2387
g862
asg1461
(lp2388
g1459
a(I-370
I-476
I640
tp2389
asg251
(lp2390
g249
as(I1085
I-1222
I640
tp2391
(lp2392
(I1057
I-511
I648
tp2393
asg814
(lp2394
g812
a(I-940
I-1459
I741
tp2395
a(I-907
I-1408
I757
tp2396
as(I-1401
I1206
I781
tp2397
(lp2398
(I-1093
I616
I800
tp2399
as(I-1234
I527
I800
tp2400
(lp2401
(I-669
I2137
I779
tp2402
as(I-257
I-899
I640
tp2403
(lp2404
(I-301
I-597
I640
tp2405
as(I350
I-1541
I640
tp2406
(lp2407
(I-348
I-1332
I608
tp2408
as(I-1352
I627
I800
tp2409
(lp2410
(I-1461
I1113
I796
tp2411
as(I-130
I784
I616
tp2412
(lp2413
(I-36
I934
I616
tp2414
as(I-1392
I1353
I711
tp2415
(lp2416
(I-1253
I676
I800
tp2417
asg481
(lp2418
g479
as(I669
I375
I658
tp2419
(lp2420
(I712
I1050
I648
tp2421
a(I754
I-290
I650
tp2422
as(I440
I1461
I616
tp2423
(lp2424
(I476
I1359
I643
tp2425
as(I-1220
I207
I776
tp2426
(lp2427
(I-1414
I1053
I796
tp2428
as(I-1224
I665
I800
tp2429
(lp2430
(I-1068
I200
I762
tp2431
as(I-1274
I394
I800
tp2432
(lp2433
(I-1248
I1073
I796
tp2434
ag1904
as(I497
I-1499
I640
tp2435
(lp2436
(I327
I-1455
I640
tp2437
asg966
(lp2438
g964
asg1759
(lp2439
g1757
asg1340
(lp2440
g1338
as(I-620
I-340
I608
tp2441
(lp2442
(I-294
I-311
I640
tp2443
as(I-1168
I-70
I608
tp2444
(lp2445
(I91
I-190
I648
tp2446
asg346
(lp2447
g344
as(I433
I163
I648
tp2448
(lp2449
(I376
I-533
I648
tp2450
as(I-758
I1027
I706
tp2451
(lp2452
(I424
I1039
I648
tp2453
as(I-538
I375
I801
tp2454
(lp2455
(I-1427
I54
I800
tp2456
as(I942
I-533
I648
tp2457
(lp2458
(I823
I-565
I648
tp2459
as(I-392
I-1251
I608
tp2460
(lp2461
(I-1736
I478
I800
tp2462
as(I4
I649
I648
tp2463
(lp2464
(I-163
I619
I800
tp2465
as(I-856
I179
I800
tp2466
(lp2467
(I-1223
I657
I800
tp2468
a(I-1513
I-444
I836
tp2469
asg1490
(lp2470
g1488
as(I-1443
I-187
I800
tp2471
(lp2472
(I-666
I486
I800
tp2473
as(I-298
I-1054
I640
tp2474
(lp2475
(I-87
I-1499
I608
tp2476
as(I-236
I-1653
I608
tp2477
(lp2478
(I34
I-1729
I608
tp2479
as(I-379
I-962
I640
tp2480
(lp2481
(I-362
I-502
I640
tp2482
as(I230
I-750
I643
tp2483
(lp2484
(I-159
I-897
I640
tp2485
as(I820
I-1202
I640
tp2486
(lp2487
(I802
I-1373
I640
tp2488
as(I541
I-850
I640
tp2489
(lp2490
(I898
I-1100
I658
tp2491
as(I-452
I-276
I800
tp2492
(lp2493
(I-1015
I-261
I800
tp2494
as(I-5
I-858
I640
tp2495
(lp2496
(I390
I-765
I650
tp2497
as(I-81
I-936
I640
tp2498
(lp2499
(I-277
I-889
I640
tp2500
as(I-231
I-1353
I608
tp2501
(lp2502
(I-349
I-604
I640
tp2503
as(I-735
I-110
I608
tp2504
(lp2505
(I-733
I-218
I616
tp2506
asg1996
(lp2507
g1994
as(I-1477
I-717
I800
tp2508
(lp2509
(I-1725
I233
I800
tp2510
as(I-1236
I835
I800
tp2511
(lp2512
(I-1396
I1316
I730
tp2513
asg1749
(lp2514
(I-88
I-81
I648
tp2515
as(I205
I-742
I647
tp2516
(lp2517
(I617
I156
I650
tp2518
as(I-853
I-178
I800
tp2519
(lp2520
(I-1730
I-359
I800
tp2521
as(I391
I-390
I651
tp2522
(lp2523
(I-384
I72
I800
tp2524
as(I-1313
I-752
I800
tp2525
(lp2526
(I-1222
I-847
I800
tp2527
asg774
(lp2528
(I-213
I-39
I800
tp2529
as(I-214
I-230
I802
tp2530
(lp2531
(I125
I170
I648
tp2532
asg2408
(lp2533
g2406
as(I-248
I-563
I800
tp2534
(lp2535
(I-564
I111
I800
tp2536
as(I-1229
I792
I800
tp2537
(lp2538
(I-1044
I476
I800
tp2539
as(I-392
I-984
I640
tp2540
(lp2541
(I665
I-675
I640
tp2542
as(I-988
I-1333
I800
tp2543
(lp2544
(I-1138
I-751
I801
tp2545
as(I103
I120
I648
tp2546
(lp2547
(I-39
I13
I653
tp2548
as(I688
I-227
I650
tp2549
(lp2550
(I-302
I-265
I800
tp2551
asg2076
(lp2552
g2074
as(I468
I224
I648
tp2553
(lp2554
(I-77
I9
I648
tp2555
asg2395
(lp2556
(I-880
I-1093
I800
tp2557
as(I-173
I2006
I781
tp2558
(lp2559
(I-1190
I1121
I796
tp2560
as(I255
I-761
I646
tp2561
(lp2562
(I-190
I-878
I640
tp2563
as(I685
I-1474
I640
tp2564
(lp2565
(I865
I-1199
I644
tp2566
as(I-240
I-1019
I800
tp2567
(lp2568
(I851
I-1075
I640
tp2569
asg76
(lp2570
g74
as(I-655
I-295
I800
tp2571
(lp2572
(I-1043
I-258
I800
tp2573
as(I306
I-638
I660
tp2574
(lp2575
(I267
I-846
I640
tp2576
as(I-1087
I273
I800
tp2577
(lp2578
(I-1384
I384
I800
tp2579
as(I-1458
I-332
I800
tp2580
(lp2581
(I-1329
I-269
I800
tp2582
as(I554
I744
I648
tp2583
(lp2584
(I568
I710
I648
tp2585
asg2051
(lp2586
g2049
asg9
(lp2587
g7
as(I-234
I-1226
I608
tp2588
(lp2589
(I-241
I-1025
I640
tp2590
asg2573
(lp2591
g2571
as(I117
I969
I648
tp2592
(lp2593
(I582
I702
I648
tp2594
as(I-478
I5
I800
tp2595
(lp2596
(I-1228
I742
I800
tp2597
as(I-17
I-1487
I626
tp2598
(lp2599
(I435
I-1497
I640
tp2600
as(I-461
I-296
I800
tp2601
(lp2602
(I-1106
I-246
I800
tp2603
as(I861
I-377
I648
tp2604
(lp2605
(I858
I-340
I648
tp2606
as(I665
I123
I650
tp2607
(lp2608
(I671
I-265
I650
tp2609
asg1649
(lp2610
g1647
as(I14
I-720
I774
tp2611
(lp2612
(I-20
I-717
I798
tp2613
asg209
(lp2614
g207
asg2171
(lp2615
g2169
a(I648
I-1152
I640
tp2616
as(I-1650
I-268
I612
tp2617
(lp2618
(I-1567
I-295
I626
tp2619
as(I-97
I2032
I780
tp2620
(lp2621
(I-1301
I867
I800
tp2622
as(I208
I864
I648
tp2623
(lp2624
(I115
I260
I648
tp2625
as(I1118
I-1467
I640
tp2626
(lp2627
(I721
I-1551
I640
tp2628
a(I-65
I-1497
I608
tp2629
as(I-1481
I241
I800
tp2630
(lp2631
(I-1378
I-214
I800
tp2632
as(I251
I1547
I616
tp2633
(lp2634
(I-202
I904
I616
tp2635
as(I-961
I-1228
I800
tp2636
(lp2637
(I-926
I-1260
I800
tp2638
as(I-1339
I-233
I800
tp2639
(lp2640
(I-1183
I-243
I800
tp2641
as(I-1251
I1006
I796
tp2642
(lp2643
(I-1307
I1158
I788
tp2644
as(I-1369
I-906
I800
tp2645
(lp2646
(I-1197
I-869
I800
tp2647
a(I-1112
I-862
I800
tp2648
asg2402
(lp2649
g2400
asg1824
(lp2650
g1822
as(I889
I-1458
I640
tp2651
(lp2652
(I260
I-1888
I608
tp2653
as(I1067
I-1123
I640
tp2654
(lp2655
(I728
I-1441
I640
tp2656
a(I615
I-1536
I640
tp2657
as(I-350
I-715
I640
tp2658
(lp2659
(I-101
I-1706
I608
tp2660
asg752
(lp2661
g750
asg321
(lp2662
g319
as(I-1553
I-411
I800
tp2663
(lp2664
(I-1674
I-251
I800
tp2665
as(I-578
I-1563
I608
tp2666
(lp2667
(I587
I-1510
I640
tp2668
asg2148
(lp2669
g2146
as(I-15
I-1966
I608
tp2670
(lp2671
(I729
I-1251
I640
tp2672
asg644
(lp2673
g642
as(I-324
I-791
I645
tp2674
(lp2675
(I-188
I-849
I640
tp2676
asg1880
(lp2677
g1878
asg799
(lp2678
g797
as(I-1458
I525
I800
tp2679
(lp2680
(I-1740
I474
I800
tp2681
asg996
(lp2682
g994
asg2124
(lp2683
(I711
I-1143
I640
tp2684
as(I-1545
I-957
I800
tp2685
(lp2686
(I-1424
I654
I800
tp2687
a(I-1070
I-921
I800
tp2688
asg1607
(lp2689
g1605
as(I595
I-935
I640
tp2690
(lp2691
(I60
I-906
I644
tp2692
asg1411
(lp2693
g1409
asg1452
(lp2694
g1450
asg85
(lp2695
g83
asg1845
(lp2696
g1843
asg2364
(lp2697
g2362
asg1770
(lp2698
g1768
as(I399
I751
I648
tp2699
(lp2700
(I296
I982
I648
tp2701
as(I-870
I189
I800
tp2702
(lp2703
(I-998
I-303
I608
tp2704
asg1070
(lp2705
g1068
as(I-1512
I-530
I800
tp2706
(lp2707
(I-1508
I-385
I800
tp2708
as(I-275
I-902
I640
tp2709
(lp2710
(I-278
I-1141
I608
tp2711
as(I-1261
I850
I800
tp2712
(lp2713
(I-1272
I610
I800
tp2714
as(I-938
I352
I800
tp2715
(lp2716
(I-760
I-146
I800
tp2717
as(I-1368
I1252
I758
tp2718
(lp2719
(I-1220
I1504
I612
tp2720
as(I-1489
I336
I800
tp2721
(lp2722
(I-1496
I188
I800
tp2723
as(I192
I1146
I616
tp2724
(lp2725
(I-822
I1068
I706
tp2726
a(I704
I621
I648
tp2727
as(I658
I-938
I640
tp2728
(lp2729
(I770
I-1518
I640
tp2730
asg2246
(lp2731
g2244
as(I259
I994
I648
tp2732
(lp2733
(I381
I1012
I648
tp2734
as(I-457
I-1473
I608
tp2735
(lp2736
(I139
I-1379
I640
tp2737
as(I-372
I-245
I800
tp2738
(lp2739
(I-65
I-721
I800
tp2740
as(I-42
I681
I646
tp2741
(lp2742
(I-73
I667
I648
tp2743
as(I-1071
I-89
I608
tp2744
(lp2745
(I-791
I-319
I608
tp2746
as(I587
I256
I650
tp2747
(lp2748
(I611
I-175
I650
tp2749
as(I-131
I-1403
I608
tp2750
(lp2751
(I83
I-1830
I608
tp2752
as(I420
I-749
I646
tp2753
(lp2754
(I-4
I-875
I640
tp2755
as(I-107
I-288
I648
tp2756
(lp2757
(I186
I-339
I656
tp2758
a(I139
I-244
I648
tp2759
asg1261
(lp2760
g1259
as(I-336
I-1485
I608
tp2761
(lp2762
(I-734
I-1558
I649
tp2763
asg746
(lp2764
g744
asg1923
(lp2765
g1921
as(I614
I1106
I648
tp2766
(lp2767
(I710
I252
I650
tp2768
as(I-1470
I-464
I800
tp2769
(lp2770
(I-1554
I265
I800
tp2771
a(I-1279
I-291
I800
tp2772
as(I238
I1513
I616
tp2773
(lp2774
(I383
I1486
I616
tp2775
as(I-309
I-1336
I608
tp2776
(lp2777
(I874
I-1569
I640
tp2778
as(I-1139
I407
I800
tp2779
(lp2780
(I-1267
I1127
I796
tp2781
asg2155
(lp2782
g2153
as(I707
I1262
I648
tp2783
(lp2784
(I655
I372
I658
tp2785
as(I661
I136
I650
tp2786
(lp2787
(I-90
I683
I645
tp2788
as(I-87
I-1659
I608
tp2789
(lp2790
(I-677
I-1601
I611
tp2791
as(I-1200
I372
I834
tp2792
(lp2793
(I-1322
I-2
I608
tp2794
asg1208
(lp2795
(I440
I1458
I616
tp2796
as(I-697
I-266
I608
tp2797
(lp2798
(I-1671
I-282
I616
tp2799
asg2354
(lp2800
g2352
as(I-28
I-1918
I608
tp2801
(lp2802
(I741
I-1838
I608
tp2803
as(I261
I210
I648
tp2804
(lp2805
(I-117
I-72
I775
tp2806
as(I-240
I-332
I648
tp2807
(lp2808
(I-523
I-330
I629
tp2809
as(I-342
I-1244
I608
tp2810
(lp2811
(I-349
I-1653
I608
tp2812
as(I56
I493
I676
tp2813
(lp2814
(I-95
I791
I616
tp2815
asg1797
(lp2816
g1795
as(I636
I-2
I650
tp2817
(lp2818
(I456
I236
I648
tp2819
as(I849
I-295
I648
tp2820
(lp2821
(I-249
I-17
I800
tp2822
asg206
(lp2823
(I-352
I-1184
I608
tp2824
asg1752
(lp2825
g1750
as(I-701
I-1558
I628
tp2826
(lp2827
(I59
I-1853
I608
tp2828
as(I-640
I-114
I800
tp2829
(lp2830
(I-1304
I570
I800
tp2831
as(I-84
I-1691
I608
tp2832
(lp2833
(I-568
I-1612
I608
tp2834
as(I-1448
I67
I800
tp2835
(lp2836
(I-1489
I-525
I800
tp2837
as(I-231
I-878
I640
tp2838
(lp2839
(I-330
I-748
I640
tp2840
as(I90
I2081
I738
tp2841
(lp2842
(I-764
I2124
I780
tp2843
as(I169
I569
I648
tp2844
(lp2845
(I71
I46
I650
tp2846
as(I-863
I464
I800
tp2847
(lp2848
(I-760
I-146
I800
tp2849
as(I-1212
I293
I801
tp2850
(lp2851
(I-1117
I291
I800
tp2852
asg1248
(lp2853
g1246
as(I-875
I-102
I608
tp2854
(lp2855
(I-200
I-114
I648
tp2856
as(I-1244
I1103
I796
tp2857
(lp2858
(I-1199
I431
I800
tp2859
asg169
(lp2860
g167
as(I-911
I1049
I731
tp2861
(lp2862
(I-234
I1086
I616
tp2863
as(I310
I947
I648
tp2864
(lp2865
(I74
I114
I650
tp2866
asg517
(lp2867
g515
asg415
(lp2868
g413
as(I-1273
I390
I800
tp2869
(lp2870
(I-1161
I325
I800
tp2871
asg1326
(lp2872
g1324
as(I-1083
I32
I635
tp2873
(lp2874
(I-1112
I327
I800
tp2875
as(I911
I-633
I648
tp2876
(lp2877
(I645
I449
I648
tp2878
as(I-1219
I-594
I800
tp2879
(lp2880
(I-1460
I417
I800
tp2881
as(I-473
I-261
I800
tp2882
(lp2883
(I42
I-1025
I756
tp2884
as(I193
I-1518
I619
tp2885
(lp2886
(I779
I40
I650
tp2887
as(I653
I-709
I642
tp2888
(lp2889
(I721
I-1297
I640
tp2890
as(I-143
I-1278
I608
tp2891
(lp2892
(I-726
I-1579
I644
tp2893
as(I-422
I-334
I800
tp2894
(lp2895
(I-1249
I-262
I800
tp2896
as(I-298
I-435
I800
tp2897
(lp2898
(I-268
I-246
I800
tp2899
asg123
(lp2900
g121
asg1821
(lp2901
g1819
as(I50
I-869
I640
tp2902
(lp2903
(I108
I-700
I711
tp2904
as(I282
I-1511
I633
tp2905
(lp2906
(I-404
I-1715
I608
tp2907
asg606
(lp2908
g604
asg767
(lp2909
g765
as(I680
I1238
I648
tp2910
(lp2911
(I451
I1051
I648
tp2912
as(I-143
I-1039
I649
tp2913
(lp2914
(I-448
I-1176
I608
tp2915
a(I-356
I-993
I640
tp2916
a(I-232
I-1053
I640
tp2917
asg2361
(lp2918
g2359
asg2510
(lp2919
g2508
as(I181
I-1502
I616
tp2920
(lp2921
(I686
I-1518
I640
tp2922
as(I-557
I-1764
I608
tp2923
(lp2924
(I750
I-739
I640
tp2925
as(I48
I-1581
I608
tp2926
(lp2927
(I-232
I-1053
I640
tp2928
as(I-291
I-531
I640
tp2929
(lp2930
(I-319
I-1649
I608
tp2931
as(I-1243
I878
I800
tp2932
(lp2933
(I-1474
I1293
I752
tp2934
asg1203
(lp2935
g1201
as(I-160
I-1699
I608
tp2936
(lp2937
(I-340
I-1591
I608
tp2938
asg379
(lp2939
g377
as(I-347
I-186
I640
tp2940
(lp2941
(I-239
I-1204
I608
tp2942
as(I-136
I-856
I640
tp2943
(lp2944
(I120
I-857
I644
tp2945
as(I937
I-403
I648
tp2946
(lp2947
(I401
I229
I648
tp2948
asg1329
(lp2949
g1327
as(I-1364
I472
I800
tp2950
(lp2951
(I-562
I40
I800
tp2952
as(I113
I-184
I648
tp2953
(lp2954
(I154
I58
I670
tp2955
as(I727
I-79
I650
tp2956
(lp2957
(I588
I702
I648
tp2958
as(I80
I1034
I636
tp2959
(lp2960
(I256
I804
I648
tp2961
asg2399
(lp2962
g2397
asg984
(lp2963
g982
asg1115
(lp2964
(I751
I-982
I640
tp2965
asg2282
(lp2966
g2280
as(I-239
I-1013
I800
tp2967
(lp2968
(I-194
I-1061
I800
tp2969
a(I-194
I-1061
I800
tp2970
as(I-351
I-468
I640
tp2971
(lp2972
(I-164
I-241
I648
tp2973
as(I-30
I-1840
I608
tp2974
(lp2975
(I-195
I-1287
I608
tp2976
asg1047
(lp2977
g1045
as(I656
I452
I648
tp2978
(lp2979
(I712
I1033
I648
tp2980
as(I-58
I-877
I640
tp2981
(lp2982
(I950
I-665
I648
tp2983
a(I66
I-860
I659
tp2984
as(I409
I-383
I670
tp2985
(lp2986
(I170
I-366
I655
tp2987
asg2704
(lp2988
g2702
asg2734
(lp2989
g2732
asg352
(lp2990
g350
as(I574
I-796
I642
tp2991
(lp2992
(I116
I-1543
I608
tp2993
as(I356
I-390
I648
tp2994
(lp2995
(I606
I-1050
I640
tp2996
as(I-525
I-1365
I608
tp2997
(lp2998
(I-288
I-1014
I640
tp2999
asg276
(lp3000
g274
as(I638
I-176
I650
tp3001
(lp3002
(I240
I-176
I648
tp3003
asg1242
(lp3004
g1240
as(I96
I-1856
I608
tp3005
(lp3006
(I375
I-1856
I608
tp3007
as(I-409
I-1470
I608
tp3008
(lp3009
(I755
I-1484
I640
tp3010
as(I-408
I-1511
I608
tp3011
(lp3012
(I-163
I-1366
I608
tp3013
as(I-31
I614
I648
tp3014
(lp3015
(I-45
I641
I648
tp3016
as(I622
I716
I648
tp3017
(lp3018
(I276
I954
I648
tp3019
asg1806
(lp3020
g1804
as(I-135
I564
I792
tp3021
(lp3022
(I158
I388
I648
tp3023
as(I-1150
I456
I800
tp3024
(lp3025
(I-1266
I924
I800
tp3026
as(I834
I-188
I648
tp3027
(lp3028
(I891
I-127
I648
tp3029
as(I420
I-1572
I640
tp3030
(lp3031
(I-29
I-1463
I608
tp3032
as(I-257
I-1121
I613
tp3033
(lp3034
(I-13
I-1719
I608
tp3035
a(I28
I-1807
I608
tp3036
asg972
(lp3037
(I-275
I2076
I993
tp3038
as(I-1150
I1204
I796
tp3039
(lp3040
(I-1217
I1227
I788
tp3041
as(I959
I-1540
I640
tp3042
(lp3043
(I773
I-1422
I640
tp3044
as(I-820
I1038
I706
tp3045
(lp3046
(I-605
I1081
I653
tp3047
as(I660
I72
I650
tp3048
(lp3049
(I735
I222
I650
tp3050
as(I250
I-680
I649
tp3051
(lp3052
(I-74
I-711
I800
tp3053
as(I1072
I-965
I640
tp3054
(lp3055
(I848
I-431
I648
tp3056
ag1575
as(I-1633
I-259
I800
tp3057
(lp3058
(I-1346
I838
I800
tp3059
as(I-1290
I1033
I796
tp3060
(lp3061
(I-1561
I1912
I632
tp3062
as(I-1191
I597
I800
tp3063
(lp3064
(I-1279
I882
I800
tp3065
asg2193
(lp3066
g2191
as(I-7
I-351
I648
tp3067
(lp3068
(I-522
I-303
I630
tp3069
as(I-1539
I-343
I800
tp3070
(lp3071
(I-1478
I577
I800
tp3072
asg2368
(lp3073
g2366
as(I-1433
I630
I800
tp3074
(lp3075
(I-1101
I1043
I796
tp3076
as(I-363
I-450
I640
tp3077
(lp3078
(I-1068
I21
I628
tp3079
as(I709
I-1241
I640
tp3080
(lp3081
(I701
I-798
I640
tp3082
asg666
(lp3083
g664
asg1700
(lp3084
g1698
as(I-1481
I1088
I796
tp3085
(lp3086
(I-1262
I753
I800
tp3087
as(I598
I196
I650
tp3088
(lp3089
(I348
I-592
I650
tp3090
asg1064
(lp3091
g1062
asg2465
(lp3092
g2463
asg1672
(lp3093
g1670
asg1438
(lp3094
(I-437
I-1622
I608
tp3095
as(I-497
I-1290
I608
tp3096
(lp3097
(I-90
I-1411
I608
tp3098
asg1385
(lp3099
g1383
as(I-36
I-1850
I608
tp3100
(lp3101
(I-160
I-1176
I608
tp3102
as(I-335
I-1082
I636
tp3103
(lp3104
(I-486
I-1735
I608
tp3105
asg542
(lp3106
g540
asg1500
(lp3107
g1498
as(I133
I17
I649
tp3108
(lp3109
(I28
I536
I648
tp3110
as(I-1443
I-298
I800
tp3111
(lp3112
(I-1430
I-391
I800
tp3113
as(I684
I-102
I650
tp3114
(lp3115
(I-350
I-329
I640
tp3116
as(I-991
I-455
I812
tp3117
(lp3118
(I-798
I176
I800
tp3119
as(I-402
I-1690
I608
tp3120
(lp3121
(I664
I-1487
I640
tp3122
asg650
(lp3123
g648
as(I-121
I-1375
I608
tp3124
(lp3125
(I-250
I-1030
I640
tp3126
asg3102
(lp3127
g3100
asg2812
(lp3128
g2810
as(I98
I-838
I640
tp3129
(lp3130
(I-106
I-920
I640
tp3131
as(I-984
I1043
I767
tp3132
(lp3133
(I-579
I1121
I640
tp3134
as(I-1030
I-979
I801
tp3135
(lp3136
(I-934
I-1415
I752
tp3137
as(I-1382
I846
I800
tp3138
(lp3139
(I-1410
I684
I800
tp3140
asg2043
(lp3141
g2041
asg898
(lp3142
g896
as(I108
I324
I648
tp3143
(lp3144
(I135
I167
I648
tp3145
as(I904
I-433
I648
tp3146
(lp3147
(I615
I533
I648
tp3148
as(I654
I694
I648
tp3149
(lp3150
(I693
I-110
I650
tp3151
as(I57
I580
I648
tp3152
(lp3153
(I419
I361
I648
tp3154
as(I-1672
I-113
I612
tp3155
(lp3156
(I-1650
I-132
I636
tp3157
as(I180
I942
I648
tp3158
(lp3159
(I-99
I1446
I608
tp3160
as(I-545
I367
I801
tp3161
(lp3162
(I-1120
I303
I800
tp3163
asg2112
(lp3164
g2110
as(I736
I-334
I685
tp3165
(lp3166
(I-414
I-310
I640
tp3167
as(I-574
I-255
I617
tp3168
(lp3169
(I-684
I-309
I608
tp3170
as(I956
I-503
I648
tp3171
(lp3172
(I1102
I-826
I640
tp3173
asg1777
(lp3174
g1775
as(I-661
I-1618
I608
tp3175
(lp3176
(I-497
I-1558
I608
tp3177
as(I914
I-1206
I641
tp3178
(lp3179
(I993
I-1178
I640
tp3180
as(I-1504
I-382
I608
tp3181
(lp3182
(I-1136
I423
I800
tp3183
asg1164
(lp3184
g1162
as(I-325
I-643
I640
tp3185
(lp3186
(I-327
I-754
I640
tp3187
asg2202
(lp3188
g2200
asg835
(lp3189
g833
asg1002
(lp3190
g1000
as(I-1198
I1071
I796
tp3191
(lp3192
(I-1266
I808
I800
tp3193
as(I703
I-1193
I640
tp3194
(lp3195
(I629
I-815
I638
tp3196
as(I-83
I-678
I800
tp3197
(lp3198
(I50
I-736
I749
tp3199
asg1395
(lp3200
g1393
as(I236
I-130
I648
tp3201
(lp3202
(I-417
I47
I800
tp3203
as(I-306
I-224
I640
tp3204
(lp3205
(I-312
I-719
I640
tp3206
as(I102
I54
I648
tp3207
(lp3208
(I696
I1117
I648
tp3209
as(I-1489
I-250
I800
tp3210
(lp3211
(I-1559
I641
I800
tp3212
asg2613
(lp3213
g2611
as(I-1209
I866
I800
tp3214
(lp3215
(I-1125
I712
I800
tp3216
as(I-96
I-1410
I608
tp3217
(lp3218
(I-370
I-1589
I608
tp3219
asg2386
(lp3220
g2384
asg2576
(lp3221
g2574
as(I-1249
I974
I800
tp3222
(lp3223
(I-1144
I297
I800
tp3224
asg1434
(lp3225
g1432
asg2295
(lp3226
(I650
I1148
I648
tp3227
asg248
(lp3228
g246
as(I-220
I-1344
I608
tp3229
(lp3230
(I-304
I-1058
I640
tp3231
as(I-261
I-1022
I640
tp3232
(lp3233
(I193
I-744
I655
tp3234
as(I717
I-1475
I640
tp3235
(lp3236
(I693
I-1487
I640
tp3237
asg1028
(lp3238
g1026
asg796
(lp3239
g794
as(I759
I-1417
I640
tp3240
(lp3241
(I828
I-361
I648
tp3242
as(I377
I-390
I648
tp3243
(lp3244
(I435
I-728
I644
tp3245
asg2225
(lp3246
g2223
as(I-298
I1177
I616
tp3247
(lp3248
(I-833
I1356
I616
tp3249
as(I110
I989
I648
tp3250
(lp3251
(I695
I623
I648
tp3252
asg609
(lp3253
g607
a(I-1674
I-95
I612
tp3254
asg728
(lp3255
g726
asg1258
(lp3256
g1256
as(I-194
I-849
I640
tp3257
(lp3258
(I1089
I-1070
I640
tp3259
as(I174
I1008
I649
tp3260
(lp3261
(I684
I1149
I648
tp3262
asg2186
(lp3263
g2184
as(I-1369
I707
I800
tp3264
(lp3265
(I-1739
I476
I800
tp3266
asg508
(lp3267
g506
asg2305
(lp3268
g2303
as(I389
I-466
I648
tp3269
(lp3270
(I230
I-774
I640
tp3271
as(I-16
I1872
I608
tp3272
(lp3273
(I0
I-1920
I608
tp3274
as(I1011
I-1170
I640
tp3275
(lp3276
(I1068
I-860
I640
tp3277
as(I980
I-254
I648
tp3278
(lp3279
(I1054
I-362
I648
tp3280
as(I-1616
I413
I800
tp3281
(lp3282
(I-1223
I941
I804
tp3283
as(I147
I-814
I640
tp3284
(lp3285
(I-711
I-61
I608
tp3286
as(I-297
I-89
I640
tp3287
(lp3288
(I-426
I-290
I640
tp3289
as(I-9
I-146
I648
tp3290
(lp3291
(I679
I450
I648
tp3292
as(I-858
I-86
I608
tp3293
(lp3294
(I-487
I-82
I640
tp3295
asg400
(lp3296
g398
as(I694
I1080
I648
tp3297
(lp3298
(I-1568
I1359
I676
tp3299
asg2806
(lp3300
g2804
as(I-1524
I1415
I665
tp3301
(lp3302
(I-1624
I1359
I653
tp3303
as(I-773
I1231
I616
tp3304
(lp3305
(I-867
I1237
I736
tp3306
as(I-1034
I1772
I609
tp3307
(lp3308
(I-640
I1882
I666
tp3309
as(I-278
I-982
I640
tp3310
(lp3311
(I-542
I-1593
I608
tp3312
asg3053
(lp3313
g3051
asg1810
(lp3314
g1808
asg892
(lp3315
g890
asg3026
(lp3316
g3024
asg1271
(lp3317
g1269
as(I61
I240
I649
tp3318
(lp3319
(I632
I370
I658
tp3320
as(I288
I1651
I608
tp3321
(lp3322
(I349
I1446
I616
tp3323
asg3087
(lp3324
g3085
asg1346
(lp3325
g1344
as(I-620
I-1581
I608
tp3326
(lp3327
(I-925
I-1543
I704
tp3328
as(I963
I-228
I648
tp3329
(lp3330
(I-66
I-249
I648
tp3331
as(I227
I-1907
I608
tp3332
(lp3333
(I-635
I-1601
I608
tp3334
as(I-1451
I358
I800
tp3335
(lp3336
(I-756
I359
I800
tp3337
asg1251
(lp3338
g1249
as(I-354
I-1324
I608
tp3339
(lp3340
(I868
I-1520
I640
tp3341
asg31
(lp3342
g29
a(I-1327
I402
I800
tp3343
as(I599
I700
I648
tp3344
(lp3345
(I350
I901
I648
tp3346
as(I-11
I-832
I640
tp3347
(lp3348
(I408
I-951
I640
tp3349
as(I729
I-1251
I640
tp3350
(lp3351
(I916
I-1666
I608
tp3352
ag2670
a(I823
I-1583
I640
tp3353
asg838
(lp3354
g836
asg2138
(lp3355
g2136
as(I279
I948
I648
tp3356
(lp3357
(I-585
I1073
I644
tp3358
as(I87
I-1829
I608
tp3359
(lp3360
(I-624
I-1526
I608
tp3361
as(I-1418
I922
I835
tp3362
(lp3363
(I-1493
I1468
I636
tp3364
as(I692
I1086
I648
tp3365
(lp3366
(I103
I998
I646
tp3367
as(I0
I937
I616
tp3368
(lp3369
(I-302
I1136
I616
tp3370
as(I-1457
I-315
I608
tp3371
(lp3372
(I-654
I-15
I608
tp3373
asg2976
(lp3374
g2974
asg2116
(lp3375
g2114
asg1836
(lp3376
g1834
asg3032
(lp3377
g3030
as(I77
I367
I650
tp3378
(lp3379
(I272
I565
I648
tp3380
as(I355
I-549
I648
tp3381
(lp3382
(I727
I50
I650
tp3383
as(I434
I1455
I616
tp3384
(lp3385
(I333
I1458
I616
tp3386
asg777
(lp3387
g775
as(I-1324
I-280
I800
tp3388
(lp3389
(I-1445
I-369
I800
tp3390
asg2656
(lp3391
g2654
as(I-1555
I1609
I608
tp3392
(lp3393
(I-1024
I1404
I616
tp3394
ag2374
asg1610
(lp3395
g1608
as(I-1375
I485
I800
tp3396
(lp3397
(I-799
I96
I800
tp3398
as(I694
I5
I650
tp3399
(lp3400
(I683
I490
I648
tp3401
asg2149
(lp3402
(I972
I-1205
I640
tp3403
asg1691
(lp3404
g1689
asg2548
(lp3405
g2546
as(I947
I-711
I648
tp3406
(lp3407
(I714
I-219
I650
tp3408
ag1695
a(I653
I436
I648
tp3409
as(I94
I98
I650
tp3410
(lp3411
(I-253
I-95
I800
tp3412
as(I-1179
I554
I800
tp3413
(lp3414
(I-804
I366
I800
tp3415
as(I845
I-349
I648
tp3416
(lp3417
(I506
I-162
I648
tp3418
as(I-1639
I-347
I612
tp3419
(lp3420
(I-904
I-270
I608
tp3421
asg971
(lp3422
(I-275
I2076
I993
tp3423
as(I-1216
I178
I754
tp3424
(lp3425
(I-1260
I862
I800
tp3426
a(I-1246
I603
I800
tp3427
asg358
(lp3428
g356
as(I134
I493
I648
tp3429
(lp3430
(I97
I27
I648
tp3431
as(I-309
I-401
I640
tp3432
(lp3433
(I-297
I-1160
I608
tp3434
a(I-75
I-248
I648
tp3435
as(I712
I1031
I648
tp3436
(lp3437
(I240
I968
I648
tp3438
ag1801
ag1972
a(I549
I-267
I650
tp3439
a(I686
I144
I650
tp3440
a(I686
I288
I650
tp3441
a(I701
I463
I648
tp3442
asg2482
(lp3443
g2480
as(I-1406
I907
I800
tp3444
(lp3445
(I-983
I288
I801
tp3446
as(I-264
I-653
I800
tp3447
(lp3448
(I-104
I-656
I800
tp3449
as(I-148
I-1411
I608
tp3450
(lp3451
(I445
I-1505
I640
tp3452
as(I322
I-149
I648
tp3453
(lp3454
(I390
I-543
I648
tp3455
as(I-293
I-140
I800
tp3456
(lp3457
(I174
I-262
I648
tp3458
as(I-419
I-316
I640
tp3459
(lp3460
(I-704
I-322
I608
tp3461
asg382
(lp3462
g380
as(I225
I-708
I642
tp3463
(lp3464
(I-265
I-1026
I640
tp3465
as(I752
I-1552
I640
tp3466
(lp3467
(I-458
I-1459
I608
tp3468
as(I-268
I-535
I800
tp3469
(lp3470
(I621
I-195
I650
tp3471
as(I-689
I94
I800
tp3472
(lp3473
(I-1496
I-238
I608
tp3474
as(I343
I-748
I649
tp3475
(lp3476
(I300
I-769
I651
tp3477
asg3262
(lp3478
g3260
as(I712
I1032
I648
tp3479
(lp3480
(I22
I648
I676
tp3481
as(I393
I556
I648
tp3482
(lp3483
(I-517
I773
I616
tp3484
as(I-183
I-1355
I608
tp3485
(lp3486
(I122
I-1590
I608
tp3487
as(I-1541
I-957
I800
tp3488
(lp3489
(I-1128
I-801
I800
tp3490
a(I-101
I-1588
I608
tp3491
asg2600
(lp3492
g2598
asg573
(lp3493
g571
asg2688
(lp3494
(I-1545
I-957
I800
tp3495
asg2462
(lp3496
g2460
asg2723
(lp3497
g2721
asg640
(lp3498
g638
asg456
(lp3499
g454
asg1594
(lp3500
(I-356
I-666
I640
tp3501
asg2852
(lp3502
g2850
asg2551
(lp3503
g2549
as(I661
I-1251
I678
tp3504
(lp3505
(I659
I-825
I640
tp3506
asg783
(lp3507
g781
as(I-1200
I569
I800
tp3508
(lp3509
(I-1068
I200
I762
tp3510
as(I-234
I-1070
I800
tp3511
(lp3512
(I596
I-1017
I640
tp3513
asg245
(lp3514
(I-1386
I635
I800
tp3515
as(I709
I1065
I648
tp3516
(lp3517
(I1082
I-1535
I640
tp3518
asg1538
(lp3519
g1536
asg2931
(lp3520
g2929
asg3383
(lp3521
g3381
as(I199
I990
I649
tp3522
(lp3523
(I-20
I1071
I616
tp3524
as(I-994
I-143
I608
tp3525
(lp3526
(I-1668
I-282
I612
tp3527
a(I-1648
I-107
I612
tp3528
as(I-1421
I-275
I608
tp3529
(lp3530
(I-1125
I322
I800
tp3531
as(I-1484
I627
I800
tp3532
(lp3533
(I-1575
I227
I800
tp3534
ag704
as(I-247
I-842
I640
tp3535
(lp3536
(I-274
I-846
I640
tp3537
as(I639
I-1559
I640
tp3538
(lp3539
(I-173
I-1366
I608
tp3540
as(I18
I-784
I804
tp3541
(lp3542
(I39
I-845
I640
tp3543
as(I-15
I643
I648
tp3544
(lp3545
(I304
I2113
I636
tp3546
as(I-577
I-325
I616
tp3547
(lp3548
(I-150
I-272
I648
tp3549
asg1056
(lp3550
g1054
as(I-984
I-1232
I800
tp3551
(lp3552
(I-1278
I-692
I800
tp3553
as(I888
I-440
I648
tp3554
(lp3555
(I-252
I-200
I800
tp3556
asg2314
(lp3557
g2312
as(I887
I-556
I648
tp3558
(lp3559
(I588
I411
I648
tp3560
as(I-1483
I241
I800
tp3561
(lp3562
(I-1387
I969
I799
tp3563
asg817
(lp3564
g815
asg3352
(lp3565
g3350
as(I1120
I-1227
I652
tp3566
(lp3567
(I1132
I-1230
I652
tp3568
as(I50
I526
I648
tp3569
(lp3570
(I140
I173
I648
tp3571
as(I837
I-1048
I640
tp3572
(lp3573
(I939
I-1161
I640
tp3574
as(I-396
I-151
I640
tp3575
(lp3576
(I-416
I-181
I640
tp3577
as(I338
I-1883
I608
tp3578
(lp3579
(I811
I-1718
I642
tp3580
as(I-952
I-1319
I800
tp3581
(lp3582
(I-1085
I-900
I800
tp3583
asg1204
(lp3584
(I-917
I-1498
I787
tp3585
as(I26
I-1696
I608
tp3586
(lp3587
(I637
I-1519
I640
tp3588
asg1675
(lp3589
g1673
asg1367
(lp3590
g1365
as(I566
I-216
I650
tp3591
(lp3592
(I602
I45
I650
tp3593
as(I413
I-795
I651
tp3594
(lp3595
(I974
I-601
I648
tp3596
as(I-82
I707
I634
tp3597
(lp3598
(I-482
I976
I616
tp3599
as(I-1059
I359
I800
tp3600
(lp3601
(I-1226
I704
I800
tp3602
asg1037
(lp3603
g1035
as(I-816
I-1536
I700
tp3604
(lp3605
(I-903
I-1479
I710
tp3606
as(I95
I414
I649
tp3607
(lp3608
(I-24
I958
I616
tp3609
asg993
(lp3610
g991
asg3528
(lp3611
(I-994
I-143
I608
tp3612
asg421
(lp3613
g419
asg3349
(lp3614
g3347
asg654
(lp3615
(I130
I163
I648
tp3616
as(I-955
I-1349
I796
tp3617
(lp3618
(I-839
I-1558
I704
tp3619
as(I-392
I-497
I800
tp3620
(lp3621
(I-410
I55
I800
tp3622
as(I-1042
I356
I800
tp3623
(lp3624
(I-1149
I1200
I796
tp3625
as(I-382
I-294
I640
tp3626
(lp3627
(I-273
I-1023
I640
tp3628
as(I251
I-1886
I608
tp3629
(lp3630
(I-257
I-1647
I608
tp3631
as(I-204
I640
I648
tp3632
(lp3633
(I9
I508
I648
tp3634
asg1470
(lp3635
g1468
as(I733
I-300
I650
tp3636
(lp3637
(I-265
I-78
I800
tp3638
as(I-1410
I1184
I783
tp3639
(lp3640
(I-1182
I367
I800
tp3641
asg1487
(lp3642
g1485
as(I-347
I-472
I640
tp3643
(lp3644
(I-81
I-80
I648
tp3645
asg1965
(lp3646
g1963
asg3292
(lp3647
g3290
as(I-132
I-86
I648
tp3648
(lp3649
(I-55
I-23
I648
tp3650
as(I-303
I-514
I640
tp3651
(lp3652
(I-312
I-719
I640
tp3653
asg3323
(lp3654
g3321
asg46
(lp3655
g44
as(I39
I524
I648
tp3656
(lp3657
(I628
I-131
I650
tp3658
asg1616
(lp3659
g1614
asg1022
(lp3660
g1020
as(I-596
I997
I649
tp3661
(lp3662
(I-23
I1733
I608
tp3663
as(I-821
I462
I800
tp3664
(lp3665
(I-1223
I694
I800
tp3666
asg2168
(lp3667
g2166
asg6
(lp3668
g4
as(I135
I1000
I648
tp3669
(lp3670
(I587
I676
I648
tp3671
asg334
(lp3672
g332
as(I-1352
I834
I800
tp3673
(lp3674
(I-1740
I-153
I800
tp3675
asg937
(lp3676
g935
asg2294
(lp3677
g2292
as(I-780
I91
I800
tp3678
(lp3679
(I-629
I-144
I800
tp3680
as(I-429
I-91
I640
tp3681
(lp3682
(I-168
I-86
I648
tp3683
as(I-818
I-84
I608
tp3684
(lp3685
(I-1012
I113
I706
tp3686
as(I838
I-329
I648
tp3687
(lp3688
(I595
I537
I668
tp3689
as(I-1247
I714
I800
tp3690
(lp3691
(I-1195
I576
I800
tp3692
asg300
(lp3693
g298
as(I-1238
I849
I800
tp3694
(lp3695
(I-1288
I1209
I774
tp3696
as(I-1401
I-829
I800
tp3697
(lp3698
(I-1457
I-799
I800
tp3699
as(I-1087
I1062
I796
tp3700
(lp3701
(I-1050
I879
I800
tp3702
asg2837
(lp3703
g2835
as(I-1536
I-6
I608
tp3704
(lp3705
(I-1148
I194
I757
tp3706
asg1355
(lp3707
g1353
asg2177
(lp3708
g2175
asg2358
(lp3709
g2356
asg1281
(lp3710
g1279
as(I-703
I-1606
I629
tp3711
(lp3712
(I-548
I-1572
I608
tp3713
as(I-672
I-285
I800
tp3714
(lp3715
(I-358
I-383
I800
tp3716
as(I557
I-1818
I608
tp3717
(lp3718
(I849
I-1109
I640
tp3719
as(I-1226
I628
I800
tp3720
(lp3721
(I-1024
I1172
I787
tp3722
as(I304
I2112
I636
tp3723
(lp3724
(I-1262
I956
I804
tp3725
as(I557
I209
I650
tp3726
(lp3727
(I93
I113
I650
tp3728
asg2229
(lp3729
g2227
as(I128
I1964
I608
tp3730
(lp3731
(I-1060
I1139
I796
tp3732
ag631
as(I-1458
I-647
I800
tp3733
(lp3734
(I-1401
I860
I800
tp3735
asg3361
(lp3736
g3359
as(I-207
I-110
I800
tp3737
(lp3738
(I-328
I-580
I800
tp3739
as(I-132
I-645
I800
tp3740
(lp3741
(I708
I-972
I640
tp3742
as(I640
I-1463
I640
tp3743
(lp3744
(I881
I-1249
I653
tp3745
as(I179
I258
I648
tp3746
(lp3747
(I601
I-66
I650
tp3748
as(I102
I144
I648
tp3749
(lp3750
(I103
I487
I648
tp3751
asg1971
(lp3752
g1969
as(I204
I668
I692
tp3753
(lp3754
(I160
I50
I670
tp3755
a(I-1
I618
I648
tp3756
as(I665
I-782
I640
tp3757
(lp3758
(I371
I-419
I648
tp3759
ag1734
as(I-274
I-1071
I638
tp3760
(lp3761
(I-147
I-1458
I608
tp3762
asg2067
(lp3763
g2065
as(I-1225
I209
I778
tp3764
(lp3765
(I-1252
I990
I796
tp3766
asg1794
(lp3767
g1792
as(I-1542
I-965
I800
tp3768
(lp3769
(I-1491
I-446
I800
tp3770
asg205
(lp3771
g203
asg1532
(lp3772
g1530
asg1111
(lp3773
g1109
asg2616
(lp3774
(I401
I-622
I651
tp3775
as(I-1181
I484
I800
tp3776
(lp3777
(I-1468
I375
I800
tp3778
as(I1133
I-549
I648
tp3779
(lp3780
(I815
I-693
I648
tp3781
asg603
(lp3782
g601
as(I106
I-834
I640
tp3783
(lp3784
(I-110
I-922
I640
tp3785
as(I672
I415
I648
tp3786
(lp3787
(I631
I-122
I650
tp3788
as(I665
I-55
I650
tp3789
(lp3790
(I657
I394
I658
tp3791
as(I-1084
I267
I800
tp3792
(lp3793
(I-1156
I-88
I608
tp3794
as(I-917
I-103
I608
tp3795
(lp3796
(I-1202
I320
I800
tp3797
as(I753
I-715
I640
tp3798
(lp3799
(I308
I-789
I642
tp3800
asg3163
(lp3801
g3161
asg2020
(lp3802
g2018
as(I151
I-344
I655
tp3803
(lp3804
(I790
I-288
I650
tp3805
asg2904
(lp3806
g2902
asg1147
(lp3807
(I-1727
I516
I800
tp3808
asg1287
(lp3809
g1285
as(I0
I-689
I784
tp3810
(lp3811
(I-245
I-1010
I800
tp3812
asg2536
(lp3813
g2534
as(I-237
I-981
I640
tp3814
(lp3815
(I-258
I-927
I640
tp3816
asg2046
(lp3817
g2044
as(I838
I-347
I648
tp3818
(lp3819
(I439
I-330
I686
tp3820
asg1388
(lp3821
g1386
asg823
(lp3822
g821
ag1478
asg2494
(lp3823
g2492
as(I-322
I-9
I800
tp3824
(lp3825
(I-570
I73
I800
tp3826
as(I285
I-1512
I634
tp3827
(lp3828
(I-70
I-1525
I608
tp3829
as(I258
I964
I648
tp3830
(lp3831
(I-1179
I1182
I796
tp3832
a(I364
I1128
I648
tp3833
asg2629
(lp3834
(I1118
I-1467
I640
tp3835
as(I-443
I-256
I800
tp3836
(lp3837
(I-493
I34
I800
tp3838
a(I-736
I-219
I800
tp3839
a(I-759
I-274
I800
tp3840
asg1370
(lp3841
g1368
as(I1079
I-911
I640
tp3842
(lp3843
(I-299
I-1102
I622
tp3844
asg758
(lp3845
g756
as(I-160
I1094
I616
tp3846
(lp3847
(I-616
I1342
I616
tp3848
as(I-104
I1141
I616
tp3849
(lp3850
(I-23
I1733
I608
tp3851
as(I-459
I-1491
I608
tp3852
(lp3853
(I-355
I-1175
I608
tp3854
as(I109
I1143
I616
tp3855
(lp3856
(I-247
I595
I800
tp3857
as(I692
I169
I650
tp3858
(lp3859
(I442
I1025
I648
tp3860
asg3788
(lp3861
g3786
as(I-1166
I331
I800
tp3862
(lp3863
(I-722
I-96
I800
tp3864
asg318
(lp3865
g316
asg3016
(lp3866
g3014
asg2106
(lp3867
g2104
as(I-1085
I-900
I800
tp3868
(lp3869
(I-1116
I-1135
I800
tp3870
ag3581
asg1631
(lp3871
g1629
as(I-1425
I-642
I800
tp3872
(lp3873
(I-1492
I-631
I800
tp3874
as(I398
I-981
I640
tp3875
(lp3876
(I58
I-733
I745
tp3877
as(I15
I-1819
I608
tp3878
(lp3879
(I85
I-1634
I608
tp3880
as(I-274
I-418
I800
tp3881
(lp3882
(I-1534
I-165
I800
tp3883
as(I522
I-1531
I640
tp3884
(lp3885
(I-2
I-1406
I608
tp3886
asg3838
(lp3887
g3836
as(I-318
I-593
I640
tp3888
(lp3889
(I-278
I-1141
I608
tp3890
as(I304
I960
I648
tp3891
(lp3892
(I-853
I1319
I616
tp3893
asg3506
(lp3894
g3504
as(I-765
I-283
I800
tp3895
(lp3896
(I-1157
I-261
I800
tp3897
asg1092
(lp3898
g1090
as(I-90
I-1404
I608
tp3899
(lp3900
(I516
I-1586
I640
tp3901
asg925
(lp3902
g923
as(I-1725
I234
I800
tp3903
(lp3904
(I-1469
I-727
I800
tp3905
asg3145
(lp3906
g3143
as(I-1425
I569
I800
tp3907
(lp3908
(I-1390
I1100
I795
tp3909
asg2497
(lp3910
g2495
asg681
(lp3911
g679
as(I-344
I-632
I640
tp3912
(lp3913
(I-191
I-1310
I608
tp3914
asg1703
(lp3915
g1701
as(I-1564
I1912
I632
tp3916
(lp3917
(I539
I744
I648
tp3918
as(I-1319
I154
I608
tp3919
(lp3920
(I-1240
I151
I734
tp3921
as(I748
I-1524
I640
tp3922
(lp3923
(I703
I-1355
I648
tp3924
as(I-1363
I-255
I608
tp3925
(lp3926
(I671
I257
I650
tp3927
as(I363
I-709
I650
tp3928
(lp3929
(I44
I-850
I640
tp3930
as(I655
I-1574
I640
tp3931
(lp3932
(I463
I-1509
I640
tp3933
as(I732
I-1481
I640
tp3934
(lp3935
(I209
I-1498
I621
tp3936
asg1992
(lp3937
g1990
as(I-967
I521
I800
tp3938
(lp3939
(I-760
I-146
I800
tp3940
as(I0
I1281
I616
tp3941
(lp3942
(I-142
I864
I616
tp3943
as(I-493
I-1433
I608
tp3944
(lp3945
(I-222
I-1348
I608
tp3946
asg3840
(lp3947
(I-443
I-256
I800
tp3948
as(I779
I-1437
I640
tp3949
(lp3950
(I893
I-1177
I640
tp3951
as(I-336
I-269
I800
tp3952
(lp3953
(I-1667
I-282
I800
tp3954
as(I399
I279
I648
tp3955
(lp3956
(I-599
I-298
I612
tp3957
as(I-683
I-1592
I616
tp3958
(lp3959
(I-126
I-1665
I608
tp3960
ag1192
as(I465
I-136
I648
tp3961
(lp3962
(I526
I220
I650
tp3963
as(I-1291
I822
I800
tp3964
(lp3965
(I-797
I154
I800
tp3966
ag2083
as(I178
I977
I649
tp3967
(lp3968
(I-305
I723
I618
tp3969
as(I-2
I1025
I616
tp3970
(lp3971
(I240
I1048
I648
tp3972
as(I-138
I-227
I648
tp3973
(lp3974
(I309
I-208
I648
tp3975
as(I851
I-683
I648
tp3976
(lp3977
(I86
I-900
I644
tp3978
as(I-230
I702
I800
tp3979
(lp3980
(I-197
I702
I804
tp3981
as(I-402
I-384
I640
tp3982
(lp3983
(I-231
I-1199
I608
tp3984
as(I-1088
I154
I727
tp3985
(lp3986
(I-774
I157
I800
tp3987
as(I-1521
I-215
I800
tp3988
(lp3989
(I-1478
I577
I800
tp3990
as(I591
I-1072
I640
tp3991
(lp3992
(I825
I-1319
I640
tp3993
as(I-1140
I1028
I796
tp3994
(lp3995
(I265
I1330
I616
tp3996
as(I-1176
I618
I800
tp3997
(lp3998
(I-466
I141
I800
tp3999
as(I-427
I-232
I800
tp4000
(lp4001
(I836
I-285
I648
tp4002
as(I529
I759
I648
tp4003
(lp4004
(I768
I678
I648
tp4005
asg3854
(lp4006
g3852
as(I59
I574
I679
tp4007
(lp4008
(I91
I-190
I648
tp4009
as(I750
I-300
I650
tp4010
(lp4011
(I453
I-224
I648
tp4012
as(I-935
I-204
I800
tp4013
(lp4014
(I-785
I99
I800
tp4015
as(I-1174
I-909
I800
tp4016
(lp4017
(I-1408
I-920
I800
tp4018
as(I407
I-327
I648
tp4019
(lp4020
(I478
I44
I648
tp4021
as(I-324
I-1228
I608
tp4022
(lp4023
(I-421
I-1355
I608
tp4024
asg1556
(lp4025
g1554
asg2241
(lp4026
g2239
ag3413
as(I-1174
I994
I796
tp4027
(lp4028
(I482
I1030
I648
tp4029
as(I529
I1300
I648
tp4030
(lp4031
(I-938
I1092
I744
tp4032
asg190
(lp4033
g188
as(I-1132
I561
I800
tp4034
(lp4035
(I-1234
I1026
I796
tp4036
asg2590
(lp4037
g2588
as(I600
I-146
I650
tp4038
(lp4039
(I577
I219
I650
tp4040
asg3370
(lp4041
g3368
as(I680
I590
I648
tp4042
(lp4043
(I601
I315
I650
tp4044
asg2887
(lp4045
g2885
as(I-1105
I345
I800
tp4046
(lp4047
(I-1535
I-347
I608
tp4048
asg902
(lp4049
g900
as(I-650
I1979
I734
tp4050
(lp4051
(I-1150
I1101
I796
tp4052
asg2884
(lp4053
g2882
asg1005
(lp4054
g1003
asg709
(lp4055
g707
as(I691
I-733
I640
tp4056
(lp4057
(I335
I-844
I640
tp4058
asg1304
(lp4059
g1302
as(I80
I-1630
I608
tp4060
(lp4061
(I-206
I-1324
I608
tp4062
as(I-357
I-484
I640
tp4063
(lp4064
(I-273
I-1023
I640
tp4065
as(I674
I105
I650
tp4066
(lp4067
(I702
I429
I648
tp4068
as(I-705
I-1539
I630
tp4069
(lp4070
(I-431
I-1492
I608
tp4071
a(I154
I-1467
I612
tp4072
asg2730
(lp4073
g2728
asg2755
(lp4074
g2753
asg3409
(lp4075
(I947
I-711
I648
tp4076
as(I-1639
I-323
I612
tp4077
(lp4078
(I-1039
I-295
I608
tp4079
asg2763
(lp4080
g2761
as(I505
I306
I648
tp4081
(lp4082
(I-168
I1024
I616
tp4083
asg2922
(lp4084
g2920
asg3883
(lp4085
g3881
asg1766
(lp4086
g1764
asg1733
(lp4087
(I-1482
I251
I800
tp4088
ag1305
asg3848
(lp4089
g3846
as(I916
I-1212
I640
tp4090
(lp4091
(I916
I-1208
I640
tp4092
asg1601
(lp4093
g1599
asg3427
(lp4094
(I-1216
I178
I754
tp4095
asg3599
(lp4096
g3597
as(I-284
I-788
I640
tp4097
(lp4098
(I-285
I-760
I640
tp4099
as(I-1685
I-238
I612
tp4100
(lp4101
(I-1023
I-90
I608
tp4102
as(I-318
I-1199
I608
tp4103
(lp4104
(I-215
I-1024
I640
tp4105
as(I-76
I-1607
I608
tp4106
(lp4107
(I1082
I-1535
I640
tp4108
as(I811
I-1491
I640
tp4109
(lp4110
(I-134
I-1428
I608
tp4111
asg2222
(lp4112
g2220
as(I-315
I-507
I640
tp4113
(lp4114
(I-327
I-721
I640
tp4115
as(I-487
I-365
I816
tp4116
(lp4117
(I-1282
I367
I800
tp4118
a(I-1139
I649
I800
tp4119
as(I366
I-898
I640
tp4120
(lp4121
(I73
I-835
I640
tp4122
asg1706
(lp4123
g1704
asg2079
(lp4124
g2077
as(I-210
I-170
I800
tp4125
(lp4126
(I662
I410
I658
tp4127
as(I-290
I-775
I640
tp4128
(lp4129
(I-368
I-1039
I649
tp4130
as(I943
I-598
I648
tp4131
(lp4132
(I896
I-475
I648
tp4133
as(I-177
I-1697
I608
tp4134
(lp4135
(I-102
I-1671
I614
tp4136
asg1082
(lp4137
g1080
asg3619
(lp4138
g3617
asg3748
(lp4139
g3746
asg582
(lp4140
g580
as(I-293
I-573
I800
tp4141
(lp4142
(I55
I-732
I747
tp4143
as(I-1659
I111
I800
tp4144
(lp4145
(I-1265
I954
I804
tp4146
asg424
(lp4147
g422
ag3229
asg773
(lp4148
g771
asg3183
(lp4149
g3181
asg1226
(lp4150
g1224
as(I-521
I-247
I800
tp4151
(lp4152
(I-71
I-686
I800
tp4153
asg1927
(lp4154
g1925
as(I657
I-72
I650
tp4155
(lp4156
(I-599
I-298
I612
tp4157
asg3534
(lp4158
g3532
as(I432
I-347
I650
tp4159
(lp4160
(I526
I220
I650
tp4161
as(I419
I-524
I649
tp4162
(lp4163
(I127
I-91
I648
tp4164
as(I650
I-1485
I640
tp4165
(lp4166
(I382
I-1557
I640
tp4167
asg1719
(lp4168
g1717
asg3465
(lp4169
g3463
ag143
as(I-1209
I773
I800
tp4170
(lp4171
(I-1561
I1912
I632
tp4172
asg2934
(lp4173
g2932
asg3625
(lp4174
g3623
a(I-1673
I-157
I800
tp4175
asg1464
(lp4176
g1462
a(I-1401
I866
I800
tp4177
asg2127
(lp4178
g2125
a(I707
I-146
I650
tp4179
as(I-983
I286
I801
tp4180
(lp4181
(I-1251
I860
I800
tp4182
as(I636
I-783
I638
tp4183
(lp4184
(I1001
I-1164
I640
tp4185
asg4153
(lp4186
g4151
as(I750
I-739
I640
tp4187
(lp4188
(I53
I-846
I640
tp4189
ag2923
as(I-444
I-1263
I608
tp4190
(lp4191
(I619
I-1559
I640
tp4192
asg3245
(lp4193
g3243
as(I-215
I-1414
I608
tp4194
(lp4195
(I-269
I-926
I640
tp4196
asg1455
(lp4197
g1453
as(I711
I688
I648
tp4198
(lp4199
(I381
I695
I648
tp4200
as(I-338
I-861
I640
tp4201
(lp4202
(I-90
I-1494
I608
tp4203
as(I840
I-642
I648
tp4204
(lp4205
(I951
I-216
I648
tp4206
as(I-281
I-416
I640
tp4207
(lp4208
(I-938
I-301
I608
tp4209
asg536
(lp4210
g534
as(I66
I-1462
I608
tp4211
(lp4212
(I-1159
I615
I800
tp4213
asg61
(lp4214
g59
as(I-1088
I245
I795
tp4215
(lp4216
(I-1363
I963
I804
tp4217
asg3105
(lp4218
g3103
as(I-250
I-511
I800
tp4219
(lp4220
(I-549
I-228
I800
tp4221
as(I118
I272
I648
tp4222
(lp4223
(I-61
I1077
I616
tp4224
as(I690
I-1474
I640
tp4225
(lp4226
(I253
I-1582
I628
tp4227
asg3013
(lp4228
g3011
a(I-418
I-1509
I608
tp4229
asg874
(lp4230
g872
asg406
(lp4231
g404
asg2298
(lp4232
g2296
as(I-1578
I-109
I608
tp4233
(lp4234
(I-1700
I-122
I616
tp4235
asg2720
(lp4236
g2718
asg3580
(lp4237
g3578
as(I-71
I-608
I800
tp4238
(lp4239
(I37
I-700
I759
tp4240
asg3306
(lp4241
g3304
asg126
(lp4242
g124
asg669
(lp4243
g667
asg630
(lp4244
(I1086
I-1214
I640
tp4245
asg2456
(lp4246
g2454
asg187
(lp4247
g185
as(I314
I928
I648
tp4248
(lp4249
(I649
I633
I648
tp4250
asg1349
(lp4251
g1347
as(I609
I415
I648
tp4252
(lp4253
(I831
I-385
I648
tp4254
asg3252
(lp4255
g3250
as(I400
I465
I648
tp4256
(lp4257
(I763
I-204
I650
tp4258
as(I622
I1258
I648
tp4259
(lp4260
(I-1302
I1025
I796
tp4261
asg52
(lp4262
g50
as(I1037
I-723
I648
tp4263
(lp4264
(I991
I-1168
I640
tp4265
asg2907
(lp4266
g2905
as(I768
I461
I648
tp4267
(lp4268
(I-15
I-22
I648
tp4269
asg3341
(lp4270
g3339
a(I-26
I-1588
I644
tp4271
as(I957
I-629
I648
tp4272
(lp4273
(I62
I-911
I640
tp4274
as(I164
I-1917
I608
tp4275
(lp4276
(I-263
I-1028
I640
tp4277
as(I383
I206
I648
tp4278
(lp4279
(I-554
I-296
I624
tp4280
as(I-1083
I1743
I608
tp4281
(lp4282
(I40
I1467
I609
tp4283
a(I-390
I1176
I616
tp4284
asg2896
(lp4285
g2894
as(I-690
I2027
I769
tp4286
(lp4287
(I-1330
I1050
I796
tp4288
as(I703
I470
I648
tp4289
(lp4290
(I591
I694
I648
tp4291
as(I-224
I-286
I648
tp4292
(lp4293
(I165
I192
I648
tp4294
as(I-181
I-971
I640
tp4295
(lp4296
(I-469
I-1557
I608
tp4297
as(I498
I-785
I649
tp4298
(lp4299
(I710
I-1337
I640
tp4300
as(I-1467
I-305
I800
tp4301
(lp4302
(I-875
I485
I800
tp4303
as(I-251
I-1382
I608
tp4304
(lp4305
(I83
I11
I648
tp4306
as(I-1182
I-948
I800
tp4307
(lp4308
(I-943
I-1189
I800
tp4309
asg1839
(lp4310
g1837
as(I594
I-715
I647
tp4311
(lp4312
(I664
I-983
I640
tp4313
asg3386
(lp4314
g3384
asg496
(lp4315
g494
as(I-1150
I1153
I796
tp4316
(lp4317
(I-1397
I1027
I796
tp4318
as(I-160
I-919
I640
tp4319
(lp4320
(I499
I-737
I645
tp4321
as(I-472
I-1220
I608
tp4322
(lp4323
(I-498
I-1418
I608
tp4324
ag1141
a(I-8
I-1476
I608
tp4325
asg919
(lp4326
g917
as(I430
I1037
I648
tp4327
(lp4328
(I695
I484
I648
tp4329
a(I741
I516
I648
tp4330
as(I-1408
I981
I796
tp4331
(lp4332
(I-1106
I241
I793
tp4333
as(I-1685
I-237
I612
tp4334
(lp4335
(I-1248
I-152
I608
tp4336
asg2165
(lp4337
g2163
asg858
(lp4338
g856
as(I-144
I-1362
I608
tp4339
(lp4340
(I226
I-1493
I624
tp4341
asg4217
(lp4342
g4215
as(I215
I668
I692
tp4343
(lp4344
(I-870
I1080
I748
tp4345
as(I-299
I-261
I640
tp4346
(lp4347
(I882
I-279
I648
tp4348
asg2329
(lp4349
g2327
asg2158
(lp4350
g2156
asg3728
(lp4351
g3726
asg3113
(lp4352
g3111
as(I149
I213
I648
tp4353
(lp4354
(I570
I0
I650
tp4355
asg3933
(lp4356
g3931
as(I-1007
I129
I717
tp4357
(lp4358
(I-1175
I503
I831
tp4359
asg1417
(lp4360
g1415
as(I544
I1091
I648
tp4361
(lp4362
(I171
I1014
I649
tp4363
asg1173
(lp4364
g1171
asg1544
(lp4365
g1542
as(I362
I-388
I648
tp4366
(lp4367
(I376
I-533
I648
tp4368
asg3987
(lp4369
g3985
asg1883
(lp4370
g1881
as(I-228
I-1243
I608
tp4371
(lp4372
(I-276
I-1139
I608
tp4373
asg975
(lp4374
g973
as(I828
I-342
I648
tp4375
(lp4376
(I487
I9
I648
tp4377
as(I-1525
I-285
I608
tp4378
(lp4379
(I-1650
I-293
I612
tp4380
asg2628
(lp4381
g2626
asg3560
(lp4382
g3558
asg2235
(lp4383
g2233
as(I0
I-1742
I608
tp4384
(lp4385
(I505
I-1448
I640
tp4386
as(I133
I-1857
I608
tp4387
(lp4388
(I-185
I-1378
I608
tp4389
as(I-1230
I970
I799
tp4390
(lp4391
(I-1266
I678
I800
tp4392
asg1855
(lp4393
g1853
as(I-533
I-1604
I608
tp4394
(lp4395
(I-343
I-1078
I639
tp4396
a(I-270
I-1089
I628
tp4397
asg1571
(lp4398
g1569
asg2809
(lp4399
g2807
asg2008
(lp4400
g2006
asg520
(lp4401
g518
asg4341
(lp4402
g4339
ag2003
asg3047
(lp4403
g3045
as(I-1508
I-156
I608
tp4404
(lp4405
(I-1673
I-122
I612
tp4406
asg1373
(lp4407
g1371
asg2969
(lp4408
g2967
a(I-239
I-1013
I800
tp4409
asg1871
(lp4410
g1869
asg1541
(lp4411
g1539
asg4325
(lp4412
(I-472
I-1220
I608
tp4413
as(I-1536
I-881
I800
tp4414
(lp4415
(I-1450
I72
I800
tp4416
asg1050
(lp4417
g1048
asg3299
(lp4418
g3297
asg4221
(lp4419
g4219
as(I-969
I-1316
I800
tp4420
(lp4421
(I-1266
I-691
I800
tp4422
asg1935
(lp4423
g1933
a(I671
I757
I648
tp4424
as(I-968
I543
I800
tp4425
(lp4426
(I-1146
I606
I800
tp4427
asg4021
(lp4428
g4019
asg3082
(lp4429
g3080
as(I-1227
I968
I800
tp4430
(lp4431
(I-1218
I685
I800
tp4432
as(I768
I688
I648
tp4433
(lp4434
(I418
I689
I648
tp4435
asg2585
(lp4436
g2583
as(I-1223
I1082
I796
tp4437
(lp4438
(I468
I945
I648
tp4439
asg4206
(lp4440
g4204
as(I-1023
I-95
I608
tp4441
(lp4442
(I-806
I-355
I608
tp4443
asg4005
(lp4444
g4003
asg3131
(lp4445
g3129
asg4269
(lp4446
g4267
asg1179
(lp4447
g1177
as(I-1535
I172
I800
tp4448
(lp4449
(I-1306
I-283
I800
tp4450
asg761
(lp4451
g759
asg142
(lp4452
g140
as(I597
I-995
I640
tp4453
(lp4454
(I951
I-1582
I640
tp4455
as(I520
I1084
I648
tp4456
(lp4457
(I660
I295
I650
tp4458
asg2846
(lp4459
g2844
as(I-470
I934
I616
tp4460
(lp4461
(I-1242
I996
I796
tp4462
asg4284
(lp4463
(I-1083
I1743
I608
tp4464
asg826
(lp4465
g824
ag3970
as(I382
I-146
I648
tp4466
(lp4467
(I680
I436
I648
tp4468
asg1053
(lp4469
g1051
as(I208
I-1577
I621
tp4470
(lp4471
(I405
I-1530
I640
tp4472
asg1849
(lp4473
g1847
as(I722
I-1504
I640
tp4474
(lp4475
(I803
I-1397
I640
tp4476
as(I-568
I-1612
I608
tp4477
(lp4478
(I655
I-1496
I640
tp4479
ag2832
as(I-1250
I1013
I796
tp4480
(lp4481
(I-1219
I969
I798
tp4482
as(I-1130
I1060
I796
tp4483
(lp4484
(I-1042
I1057
I796
tp4485
as(I-1165
I417
I800
tp4486
(lp4487
(I-1304
I570
I800
tp4488
as(I-676
I-197
I800
tp4489
(lp4490
(I-826
I288
I800
tp4491
as(I-784
I-60
I800
tp4492
(lp4493
(I-934
I421
I800
tp4494
asg3957
(lp4495
g3955
ag4155
asg3277
(lp4496
g3275
as(I59
I238
I648
tp4497
(lp4498
(I410
I-331
I648
tp4499
as(I-1323
I-927
I800
tp4500
(lp4501
(I-1547
I-958
I800
tp4502
asg950
(lp4503
g948
asg2912
(lp4504
g2910
asg267
(lp4505
(I-1738
I477
I800
tp4506
asg2692
(lp4507
g2690
as(I-318
I361
I801
tp4508
(lp4509
(I-279
I-374
I800
tp4510
asg3699
(lp4511
g3697
as(I575
I-707
I643
tp4512
(lp4513
(I380
I-728
I647
tp4514
ag1641
asg628
(lp4515
g626
as(I795
I-1510
I640
tp4516
(lp4517
(I230
I-1490
I625
tp4518
as(I-364
I-1618
I608
tp4519
(lp4520
(I1094
I-1534
I640
tp4521
asg3003
(lp4522
g3001
asg743
(lp4523
g741
asg1833
(lp4524
g1831
as(I-1171
I-293
I608
tp4525
(lp4526
(I-1650
I-293
I612
tp4527
as(I-961
I-1582
I704
tp4528
(lp4529
(I-530
I-1524
I608
tp4530
as(I1081
I-1539
I640
tp4531
(lp4532
(I826
I-1089
I640
tp4533
asg2097
(lp4534
g2095
as(I1081
I-1536
I640
tp4535
(lp4536
(I706
I-1407
I648
tp4537
asg861
(lp4538
g859
as(I86
I-843
I640
tp4539
(lp4540
(I866
I-1076
I640
tp4541
as(I-1508
I-389
I608
tp4542
(lp4543
(I-1207
I161
I741
tp4544
as(I627
I-1468
I640
tp4545
(lp4546
(I893
I-1487
I640
tp4547
as(I-535
I-315
I627
tp4548
(lp4549
(I-442
I-348
I640
tp4550
asg865
(lp4551
(I882
I-735
I648
tp4552
asg1979
(lp4553
g1977
asg1313
(lp4554
g1311
as(I-364
I-410
I640
tp4555
(lp4556
(I-354
I-508
I640
tp4557
asg4136
(lp4558
g4134
as(I-548
I-1572
I608
tp4559
(lp4560
(I-538
I-1479
I608
tp4561
ag3711
asg3874
(lp4562
g3872
as(I-1557
I-906
I803
tp4563
(lp4564
(I-1026
I-344
I800
tp4565
asg4261
(lp4566
g4259
asg3199
(lp4567
g3197
as(I433
I-244
I648
tp4568
(lp4569
(I272
I565
I648
tp4570
asg2579
(lp4571
g2577
asg3914
(lp4572
g3912
as(I426
I-527
I651
tp4573
(lp4574
(I280
I-680
I650
tp4575
asg2644
(lp4576
g2642
asg2473
(lp4577
g2471
asg285
(lp4578
g283
as(I953
I-1182
I640
tp4579
(lp4580
(I791
I-1400
I640
tp4581
asg3725
(lp4582
g3723
as(I-1133
I246
I796
tp4583
(lp4584
(I-858
I205
I800
tp4585
asg64
(lp4586
g62
as(I191
I318
I648
tp4587
(lp4588
(I-267
I1073
I616
tp4589
asg4491
(lp4590
g4489
asg1352
(lp4591
g1350
asg4164
(lp4592
g4162
asg663
(lp4593
g661
as(I1129
I-1183
I640
tp4594
(lp4595
(I1030
I-724
I648
tp4596
asg3751
(lp4597
g3749
asg3826
(lp4598
g3824
as(I-1053
I-1125
I800
tp4599
(lp4600
(I-892
I-1267
I800
tp4601
as(I-1022
I-946
I800
tp4602
(lp4603
(I-909
I-1419
I749
tp4604
asg89
(lp4605
(I-421
I57
I800
tp4606
asg678
(lp4607
g676
asg931
(lp4608
g929
asg1098
(lp4609
g1096
asg4462
(lp4610
g4460
asg3408
(lp4611
g3406
asg3452
(lp4612
g3450
as(I-1268
I966
I804
tp4613
(lp4614
(I-833
I1067
I706
tp4615
as(I-1132
I753
I800
tp4616
(lp4617
(I-1018
I330
I800
tp4618
asg616
(lp4619
g614
as(I760
I-1368
I640
tp4620
(lp4621
(I829
I-1117
I640
tp4622
as(I75
I526
I648
tp4623
(lp4624
(I-28
I1697
I608
tp4625
as(I-1171
I1045
I796
tp4626
(lp4627
(I-1254
I863
I800
tp4628
as(I-1104
I348
I800
tp4629
(lp4630
(I-1361
I-94
I608
tp4631
asg1343
(lp4632
g1341
asg2335
(lp4633
g2333
asg1229
(lp4634
g1227
as(I645
I693
I648
tp4635
(lp4636
(I275
I792
I648
tp4637
as(I-1024
I-1185
I800
tp4638
(lp4639
(I-951
I-1436
I738
tp4640
as(I-138
I-1492
I608
tp4641
(lp4642
(I755
I-1483
I640
tp4643
asg2190
(lp4644
(I-278
I-1076
I634
tp4645
as(I-1402
I1101
I796
tp4646
(lp4647
(I-1476
I55
I800
tp4648
asg2393
(lp4649
g2391
as(I-1717
I190
I800
tp4650
(lp4651
(I-1711
I122
I800
tp4652
as(I-336
I-581
I640
tp4653
(lp4654
(I-303
I-891
I640
tp4655
as(I-1144
I-692
I801
tp4656
(lp4657
(I-1470
I-753
I800
tp4658
asg1268
(lp4659
g1266
asg306
(lp4660
g304
as(I-1521
I-457
I800
tp4661
(lp4662
(I-1284
I-824
I800
tp4663
asg4499
(lp4664
g4497
as(I-1406
I-261
I645
tp4665
(lp4666
(I-993
I-280
I608
tp4667
asg2632
(lp4668
g2630
asg1061
(lp4669
(I189
I781
I648
tp4670
as(I722
I595
I648
tp4671
(lp4672
(I519
I737
I648
tp4673
as(I-1505
I-442
I800
tp4674
(lp4675
(I-1527
I-917
I802
tp4676
asg3593
(lp4677
g3591
asg1716
(lp4678
g1714
asg999
(lp4679
g997
asg1274
(lp4680
g1272
asg1358
(lp4681
g1356
as(I-725
I-1588
I644
tp4682
(lp4683
(I593
I-1578
I640
tp4684
asg2727
(lp4685
(I192
I1146
I616
tp4686
asg551
(lp4687
g549
asg2500
(lp4688
g2498
as(I-1270
I625
I800
tp4689
(lp4690
(I-857
I496
I800
tp4691
ag2140
asg4044
(lp4692
g4042
asg832
(lp4693
g830
asg3426
(lp4694
g3424
as(I896
I-1536
I640
tp4695
(lp4696
(I-429
I-1500
I608
tp4697
as(I702
I1061
I648
tp4698
(lp4699
(I-501
I1092
I616
tp4700
as(I-492
I-1180
I608
tp4701
(lp4702
(I-11
I-1453
I608
tp4703
as(I-1453
I-603
I800
tp4704
(lp4705
(I-1007
I-584
I800
tp4706
asg3680
(lp4707
g3678
asg1547
(lp4708
g1545
as(I-1270
I-109
I608
tp4709
(lp4710
(I-1341
I-40
I608
tp4711
as(I226
I-1912
I608
tp4712
(lp4713
(I240
I-1950
I608
tp4714
as(I966
I-1579
I640
tp4715
(lp4716
(I-688
I-1576
I619
tp4717
asg4533
(lp4718
g4531
asg4192
(lp4719
g4190
as(I-12
I1067
I616
tp4720
(lp4721
(I593
I1288
I648
tp4722
as(I997
I-479
I648
tp4723
(lp4724
(I83
I380
I650
tp4725
asg1079
(lp4726
g1077
asg1568
(lp4727
g1566
as(I642
I-192
I650
tp4728
(lp4729
(I-558
I-64
I620
tp4730
asg3019
(lp4731
g3017
as(I-1742
I474
I800
tp4732
(lp4733
(I-985
I1040
I767
tp4734
a(I-1208
I831
I800
tp4735
asg641
(lp4736
(I-784
I-294
I608
tp4737
asg288
(lp4738
g286
as(I623
I-68
I650
tp4739
(lp4740
(I920
I-451
I648
tp4741
asg3050
(lp4742
g3048
as(I651
I359
I650
tp4743
(lp4744
(I629
I369
I658
tp4745
asg2794
(lp4746
g2792
asg235
(lp4747
(I-683
I-1529
I620
tp4748
asg3056
(lp4749
g3054
asg3122
(lp4750
g3120
as(I-746
I2091
I780
tp4751
(lp4752
(I-1158
I1185
I796
tp4753
a(I-1158
I1236
I796
tp4754
asg175
(lp4755
g173
a(I-648
I21
I800
tp4756
asg3343
(lp4757
(I-1529
I22
I800
tp4758
asg1361
(lp4759
g1359
as(I-555
I-1598
I608
tp4760
(lp4761
(I-194
I-968
I640
tp4762
asg2317
(lp4763
g2315
asg2856
(lp4764
g2854
as(I-1420
I-730
I800
tp4765
(lp4766
(I-1183
I-749
I800
tp4767
asg3364
(lp4768
g3362
as(I-217
I-595
I800
tp4769
(lp4770
(I-111
I-668
I800
tp4771
as(I59
I102
I648
tp4772
(lp4773
(I170
I289
I648
tp4774
asg238
(lp4775
g236
as(I408
I742
I648
tp4776
(lp4777
(I442
I1025
I648
tp4778
asg193
(lp4779
g191
asg2129
(lp4780
(I116
I-1859
I608
tp4781
as(I-1199
I659
I800
tp4782
(lp4783
(I-1210
I637
I800
tp4784
asg4432
(lp4785
g4430
as(I-1311
I797
I800
tp4786
(lp4787
(I-729
I320
I800
tp4788
as(I171
I291
I648
tp4789
(lp4790
(I-267
I1073
I616
tp4791
as(I-1522
I-469
I800
tp4792
(lp4793
(I-1284
I-824
I800
tp4794
asg3154
(lp4795
g3152
as(I-286
I-227
I800
tp4796
(lp4797
(I174
I-133
I648
tp4798
asg1659
(lp4799
g1657
as(I-1183
I987
I796
tp4800
(lp4801
(I-258
I1150
I616
tp4802
asg4658
(lp4803
g4656
asg4706
(lp4804
g4704
ag2318
asg4146
(lp4805
g4144
as(I-1361
I-166
I800
tp4806
(lp4807
(I-610
I-306
I800
tp4808
asg1255
(lp4809
g1253
asg1959
(lp4810
g1957
as(I916
I-233
I648
tp4811
(lp4812
(I-317
I-96
I640
tp4813
as(I-1263
I-154
I867
tp4814
(lp4815
(I-1501
I-555
I800
tp4816
as(I-979
I1043
I765
tp4817
(lp4818
(I-966
I1100
I758
tp4819
as(I30
I-12
I648
tp4820
(lp4821
(I-558
I-64
I620
tp4822
asg687
(lp4823
g685
asg4009
(lp4824
g4007
ag2444
asg3770
(lp4825
g3768
as(I98
I141
I648
tp4826
(lp4827
(I-239
I-281
I800
tp4828
as(I-1272
I452
I800
tp4829
(lp4830
(I-1653
I411
I800
tp4831
ag1144
as(I-1326
I562
I800
tp4832
(lp4833
(I-685
I231
I800
tp4834
asg4565
(lp4835
g4563
as(I95
I315
I650
tp4836
(lp4837
(I-152
I985
I616
tp4838
asg4479
(lp4839
g4477
as(I-399
I-32
I640
tp4840
(lp4841
(I-307
I-687
I640
tp4842
as(I-1168
I-918
I800
tp4843
(lp4844
(I-1023
I-1146
I800
tp4845
as(I230
I-1483
I625
tp4846
(lp4847
(I758
I-1480
I640
tp4848
asg241
(lp4849
g239
as(I-724
I-1580
I643
tp4850
(lp4851
(I-956
I-1405
I759
tp4852
as(I-992
I-1292
I800
tp4853
(lp4854
(I-1284
I-824
I800
tp4855
as(I933
I-1640
I622
tp4856
(lp4857
(I749
I-1359
I640
tp4858
as(I-902
I-193
I800
tp4859
(lp4860
(I-1090
I637
I800
tp4861
as(I854
I-1139
I640
tp4862
(lp4863
(I683
I-1536
I640
tp4864
asg3820
(lp4865
g3818
as(I-1208
I986
I796
tp4866
(lp4867
(I-1169
I653
I800
tp4868
a(I-1204
I655
I800
tp4869
as(I-1503
I-378
I608
tp4870
(lp4871
(I-1003
I342
I800
tp4872
ag133
asg2252
(lp4873
g2250
asg4386
(lp4874
g4384
as(I30
I942
I618
tp4875
(lp4876
(I647
I1141
I648
tp4877
as(I-1388
I-188
I800
tp4878
(lp4879
(I-375
I-327
I800
tp4880
as(I948
I-695
I648
tp4881
(lp4882
(I581
I165
I650
tp4883
as(I-1532
I-133
I608
tp4884
(lp4885
(I-353
I-20
I640
tp4886
asg4359
(lp4887
g4357
asg49
(lp4888
g47
as(I-464
I45
I800
tp4889
(lp4890
(I-880
I414
I800
tp4891
asg4389
(lp4892
g4387
as(I-290
I-1382
I608
tp4893
(lp4894
(I747
I-1590
I640
tp4895
asg4691
(lp4896
g4689
asg4450
(lp4897
g4448
as(I-1128
I1028
I796
tp4898
(lp4899
(I431
I1005
I648
tp4900
asg3877
(lp4901
g3875
as(I-155
I-233
I648
tp4902
(lp4903
(I-336
I-441
I640
tp4904
asg4032
(lp4905
g4030
asg4510
(lp4906
g4508
asg3412
(lp4907
g3410
asg4092
(lp4908
g4090
asg3901
(lp4909
g3899
asg1909
(lp4910
g1907
as(I-234
I-1170
I608
tp4911
(lp4912
(I-327
I-569
I640
tp4913
asg2822
(lp4914
g2820
as(I-993
I-1424
I751
tp4915
(lp4916
(I-1026
I-1216
I800
tp4917
as(I648
I-994
I640
tp4918
(lp4919
(I765
I-1387
I640
tp4920
as(I-248
I-1011
I640
tp4921
(lp4922
(I-346
I-620
I640
tp4923
asg4254
(lp4924
g4252
asg4618
(lp4925
g4616
asg2893
(lp4926
g2891
ag2339
as(I-94
I-976
I640
tp4927
(lp4928
(I-267
I-1025
I640
tp4929
asg4179
(lp4930
(I951
I-204
I648
tp4931
asg3441
(lp4932
(I712
I1031
I648
tp4933
as(I425
I356
I648
tp4934
(lp4935
(I4
I629
I648
tp4936
as(I-966
I-1177
I800
tp4937
(lp4938
(I-1488
I-493
I800
tp4939
asg4880
(lp4940
g4878
as(I-8
I-1960
I608
tp4941
(lp4942
(I607
I-1855
I608
tp4943
asg4735
(lp4944
(I-1742
I474
I800
tp4945
as(I-871
I201
I800
tp4946
(lp4947
(I-1348
I1070
I796
tp4948
as(I-1444
I-306
I608
tp4949
(lp4950
(I-1142
I294
I800
tp4951
asg202
(lp4952
g200
asg2082
(lp4953
g2080
as(I-271
I-1133
I608
tp4954
(lp4955
(I-233
I-1297
I608
tp4956
as(I-429
I-1368
I608
tp4957
(lp4958
(I-319
I-1216
I608
tp4959
asg2437
(lp4960
g2435
as(I-907
I-1495
I704
tp4961
(lp4962
(I-764
I-1583
I669
tp4963
asg3079
(lp4964
g3077
as(I-1493
I-603
I800
tp4965
(lp4966
(I-1406
I-314
I800
tp4967
asg660
(lp4968
g658
as(I705
I-1505
I640
tp4969
(lp4970
(I477
I-1876
I608
tp4971
asg1694
(lp4972
g1692
asg4443
(lp4973
g4441
as(I-902
I-644
I800
tp4974
(lp4975
(I-791
I-708
I800
tp4976
as(I-696
I129
I800
tp4977
(lp4978
(I-254
I-51
I800
tp4979
asg3431
(lp4980
g3429
asg2180
(lp4981
g2178
asg4794
(lp4982
g4792
ag2324
ag4661
ag4853
asg4615
(lp4983
g4613
asg957
(lp4984
(I1081
I-1581
I640
tp4985
asg555
(lp4986
g553
as(I-984
I213
I781
tp4987
(lp4988
(I-1468
I375
I800
tp4989
asg1211
(lp4990
g1209
asg3303
(lp4991
g3301
asg2338
(lp4992
g2336
asg4601
(lp4993
g4599
asg880
(lp4994
g878
asg4550
(lp4995
g4548
as(I-1003
I-1212
I800
tp4996
(lp4997
(I-950
I-527
I832
tp4998
as(I162
I410
I648
tp4999
(lp5000
(I-43
I517
I648
tp5001
asg294
(lp5002
g292
asg3151
(lp5003
g3149
as(I576
I-56
I668
tp5004
(lp5005
(I-2
I1069
I616
tp5006
as(I611
I-809
I639
tp5007
(lp5008
(I1026
I-1208
I640
tp5009
as(I-243
I-1354
I608
tp5010
(lp5011
(I-307
I-586
I640
tp5012
as(I-664
I-345
I608
tp5013
(lp5014
(I-560
I-83
I620
tp5015
as(I278
I-849
I640
tp5016
(lp5017
(I-232
I-1053
I640
tp5018
asg946
(lp5019
g944
asg1043
(lp5020
g1041
asg2524
(lp5021
g2522
asg4380
(lp5022
g4378
ag4525
a(I-697
I-164
I616
tp5023
a(I-1274
I-292
I608
tp5024
a(I-697
I-164
I616
tp5025
asg3059
(lp5026
g3057
as(I722
I-1252
I640
tp5027
(lp5028
(I998
I-1488
I640
tp5029
as(I-834
I1116
I706
tp5030
(lp5031
(I-814
I1130
I706
tp5032
as(I129
I132
I648
tp5033
(lp5034
(I-99
I1019
I616
tp5035
as(I-196
I1810
I608
tp5036
(lp5037
(I-1090
I1618
I608
tp5038
asg2513
(lp5039
g2511
asg3577
(lp5040
g3575
as(I-1577
I-294
I643
tp5041
(lp5042
(I-1640
I-294
I612
tp5043
a(I-1668
I-268
I612
tp5044
as(I870
I-1272
I640
tp5045
(lp5046
(I985
I-1198
I640
tp5047
asg4200
(lp5048
g4198
asg2635
(lp5049
g2633
asg199
(lp5050
g197
asg552
(lp5051
(I383
I511
I648
tp5052
asg697
(lp5053
g695
as(I-649
I-310
I608
tp5054
(lp5055
(I-1142
I-127
I608
tp5056
as(I-1118
I-976
I800
tp5057
(lp5058
(I-1048
I-898
I800
tp5059
asg2450
(lp5060
g2448
ag4366
asg3266
(lp5061
g3264
as(I200
I-1905
I608
tp5062
(lp5063
(I-675
I-1551
I611
tp5064
asg3328
(lp5065
g3326
as(I-274
I-432
I800
tp5066
(lp5067
(I-726
I431
I800
tp5068
as(I-632
I1295
I616
tp5069
(lp5070
(I-92
I1072
I616
tp5071
asg340
(lp5072
g338
asg956
(lp5073
g954
as(I-889
I-197
I800
tp5074
(lp5075
(I-1479
I-276
I800
tp5076
asg3242
(lp5077
g3240
asg3686
(lp5078
g3684
as(I-73
I-285
I648
tp5079
(lp5080
(I763
I-283
I650
tp5081
asg2819
(lp5082
g2817
asg5068
(lp5083
g5066
as(I-496
I-70
I636
tp5084
(lp5085
(I-1055
I-144
I608
tp5086
as(I-305
I1112
I616
tp5087
(lp5088
(I170
I966
I648
tp5089
asg793
(lp5090
g791
a(I-125
I-1402
I608
tp5091
asg2145
(lp5092
g2143
a(I95
I366
I650
tp5093
asg4967
(lp5094
g4965
asg4557
(lp5095
g4555
asg2758
(lp5096
g2756
as(I404
I-812
I647
tp5097
(lp5098
(I919
I-699
I648
tp5099
as(I-147
I-313
I648
tp5100
(lp5101
(I690
I-19
I650
tp5102
asg3134
(lp5103
g3132
as(I-332
I-1063
I647
tp5104
(lp5105
(I-186
I-914
I640
tp5106
asg1294
(lp5107
g1292
asg212
(lp5108
g210
as(I-488
I84
I800
tp5109
(lp5110
(I-367
I13
I800
tp5111
as(I-292
I1831
I608
tp5112
(lp5113
(I440
I1459
I616
tp5114
as(I-1219
I238
I800
tp5115
(lp5116
(I-1241
I731
I800
tp5117
asg4756
(lp5118
(I-935
I-271
I800
tp5119
asg3471
(lp5120
g3469
asg1862
(lp5121
g1860
as(I-1087
I963
I811
tp5122
(lp5123
(I202
I1935
I608
tp5124
as(I-1046
I353
I800
tp5125
(lp5126
(I-1572
I-255
I608
tp5127
as(I640
I746
I648
tp5128
(lp5129
(I749
I-281
I650
tp5130
as(I-28
I-743
I798
tp5131
(lp5132
(I-1014
I-980
I801
tp5133
asg3641
(lp5134
g3639
as(I-1475
I495
I800
tp5135
(lp5136
(I-751
I2105
I780
tp5137
asg3890
(lp5138
g3888
ag2709
asg5091
(lp5139
(I-337
I-535
I640
tp5140
asg3880
(lp5141
g3878
asg3732
(lp5142
g3730
asg1067
(lp5143
g1065
as(I-1305
I581
I800
tp5144
(lp5145
(I-537
I213
I801
tp5146
asg694
(lp5147
g692
asg3984
(lp5148
g3982
asg505
(lp5149
g503
asg1140
(lp5150
g1138
asg4133
(lp5151
g4131
as(I-1211
I212
I779
tp5152
(lp5153
(I-1182
I433
I800
tp5154
asg436
(lp5155
g434
asg4029
(lp5156
g4027
asg3609
(lp5157
g3607
as(I116
I-1543
I608
tp5158
(lp5159
(I-211
I-975
I640
tp5160
ag2991
as(I-413
I115
I800
tp5161
(lp5162
(I301
I-231
I648
tp5163
as(I534
I-767
I645
tp5164
(lp5165
(I163
I-869
I640
tp5166
as(I-1760
I438
I800
tp5167
(lp5168
(I-1083
I1017
I796
tp5169
as(I615
I-1530
I640
tp5170
(lp5171
(I-280
I-1389
I608
tp5172
asg101
(lp5173
g99
asg2726
(lp5174
g2724
asg4182
(lp5175
g4180
as(I-975
I-431
I800
tp5176
(lp5177
(I-959
I-769
I800
tp5178
asg1865
(lp5179
g1863
asg1613
(lp5180
g1611
asg2840
(lp5181
g2838
asg3832
(lp5182
g3830
asg1191
(lp5183
g1189
asg1688
(lp5184
(I-1057
I-277
I608
tp5185
as(I-1635
I533
I800
tp5186
(lp5187
(I-1722
I86
I800
tp5188
as(I805
I-1055
I640
tp5189
(lp5190
(I825
I-1319
I640
tp5191
asg4845
(lp5192
g4843
as(I-299
I-281
I800
tp5193
(lp5194
(I632
I163
I650
tp5195
asg4048
(lp5196
g4046
a(I-1127
I352
I800
tp5197
ag1572
ag22
asg2775
(lp5198
g2773
asg98
(lp5199
g96
as(I215
I-220
I648
tp5200
(lp5201
(I93
I353
I650
tp5202
as(I1133
I-1661
I670
tp5203
(lp5204
(I786
I-1487
I640
tp5205
asg1156
(lp5206
g1154
as(I796
I-1362
I640
tp5207
(lp5208
(I781
I-1449
I640
tp5209
asg4099
(lp5210
g4097
as(I-327
I18
I800
tp5211
(lp5212
(I1100
I-467
I648
tp5213
as(I-615
I-1607
I608
tp5214
(lp5215
(I66
I-1775
I609
tp5216
asg1709
(lp5217
g1707
as(I-1271
I396
I800
tp5218
(lp5219
(I-1652
I300
I800
tp5220
asg3237
(lp5221
g3235
as(I93
I-684
I729
tp5222
(lp5223
(I-167
I-1043
I800
tp5224
asg474
(lp5225
g472
asg1646
(lp5226
g1644
as(I717
I-16
I650
tp5227
(lp5228
(I-371
I-40
I800
tp5229
asg3353
(lp5230
(I729
I-1251
I640
tp5231
as(I-1460
I275
I800
tp5232
(lp5233
(I-1509
I-92
I800
tp5234
as(I659
I660
I648
tp5235
(lp5236
(I517
I1098
I648
tp5237
asg1076
(lp5238
g1074
ag4248
asg3571
(lp5239
g3569
asg4998
(lp5240
g4996
as(I-77
I1015
I616
tp5241
(lp5242
(I-5
I531
I648
tp5243
asg2781
(lp5244
g2779
as(I193
I-694
I656
tp5245
(lp5246
(I622
I-675
I643
tp5247
asg3438
(lp5248
g3436
as(I-256
I-482
I640
tp5249
(lp5250
(I-664
I-80
I608
tp5251
asg2100
(lp5252
g2098
a(I-952
I-284
I608
tp5253
ag2797
asg4725
(lp5254
g4723
as(I396
I-447
I648
tp5255
(lp5256
(I63
I33
I648
tp5257
asg3563
(lp5258
g3561
as(I510
I214
I650
tp5259
(lp5260
(I289
I-704
I648
tp5261
asg2521
(lp5262
g2519
a(I-848
I-169
I800
tp5263
asg3435
(lp5264
(I-309
I-401
I640
tp5265
asg2428
(lp5266
g2426
as(I735
I-147
I650
tp5267
(lp5268
(I-1015
I-265
I800
tp5269
asg3023
(lp5270
g3021
asg1095
(lp5271
g1093
asg1950
(lp5272
g1948
asg4684
(lp5273
g4682
as(I468
I822
I686
tp5274
(lp5275
(I555
I728
I648
tp5276
asg700
(lp5277
g698
asg1474
(lp5278
g1472
asg2405
(lp5279
g2403
asg2443
(lp5280
g2441
asg4717
(lp5281
g4715
asg92
(lp5282
g90
as(I-243
I813
I616
tp5283
(lp5284
(I-127
I760
I616
tp5285
as(I-1215
I660
I800
tp5286
(lp5287
(I-1361
I1224
I774
tp5288
asg2687
(lp5289
g2685
asg3090
(lp5290
g3088
asg4458
(lp5291
g4456
asg2875
(lp5292
g2873
asg2863
(lp5293
g2861
as(I138
I365
I648
tp5294
(lp5295
(I25
I987
I624
tp5296
as(I383
I-712
I649
tp5297
(lp5298
(I-390
I-955
I640
tp5299
as(I-1315
I626
I800
tp5300
(lp5301
(I-1431
I1023
I796
tp5302
as(I-1342
I-219
I800
tp5303
(lp5304
(I-1487
I-381
I800
tp5305
asg4108
(lp5306
g4106
ag3516
a(I396
I-1836
I643
tp5307
asg1729
(lp5308
g1727
asg3568
(lp5309
g3566
asg1408
(lp5310
g1406
asg3960
(lp5311
g3958
asg841
(lp5312
g839
as(I-60
I-1495
I643
tp5313
(lp5314
(I-336
I-1211
I608
tp5315
as(I978
I-500
I648
tp5316
(lp5317
(I1117
I-863
I640
tp5318
asg4640
(lp5319
g4638
asg3513
(lp5320
g3511
as(I781
I-1449
I640
tp5321
(lp5322
(I837
I-1556
I640
tp5323
ag5207
asg847
(lp5324
g845
as(I-277
I-771
I800
tp5325
(lp5326
(I634
I-784
I638
tp5327
asg4753
(lp5328
g4751
as(I328
I-1896
I608
tp5329
(lp5330
(I-19
I-1958
I608
tp5331
asg4265
(lp5332
g4263
a(I1065
I-606
I648
tp5333
asg2323
(lp5334
g2321
asg1379
(lp5335
g1377
as(I577
I-165
I650
tp5336
(lp5337
(I675
I384
I658
tp5338
asg2771
(lp5339
g2769
as(I-473
I-1153
I608
tp5340
(lp5341
(I-320
I-1144
I608
tp5342
asg533
(lp5343
(I687
I183
I650
tp5344
as(I403
I234
I648
tp5345
(lp5346
(I385
I-496
I648
tp5347
as(I937
I-509
I648
tp5348
(lp5349
(I1079
I-912
I640
tp5350
asg529
(lp5351
g527
as(I-1124
I1861
I608
tp5352
(lp5353
(I-1298
I1242
I768
tp5354
asg2749
(lp5355
g2747
as(I-948
I-1432
I741
tp5356
(lp5357
(I-1014
I-1155
I800
tp5358
as(I-928
I989
I739
tp5359
(lp5360
(I-1515
I970
I800
tp5361
asg851
(lp5362
g849
ag3060
ag4170
asg2396
(lp5363
(I-880
I-1093
I800
tp5364
as(I681
I-14
I650
tp5365
(lp5366
(I801
I131
I650
tp5367
ag289
asg2301
(lp5368
g2299
as(I-1429
I393
I800
tp5369
(lp5370
(I-1542
I-960
I800
tp5371
asg5247
(lp5372
g5245
as(I-29
I-75
I648
tp5373
(lp5374
(I-238
I-170
I800
tp5375
as(I226
I1026
I648
tp5376
(lp5377
(I-709
I1100
I705
tp5378
asg4798
(lp5379
g4796
as(I-22
I-684
I806
tp5380
(lp5381
(I-238
I595
I800
tp5382
as(I-330
I-1298
I608
tp5383
(lp5384
(I376
I-1567
I640
tp5385
as(I-1154
I1141
I796
tp5386
(lp5387
(I-45
I2031
I780
tp5388
as(I1019
I-802
I648
tp5389
(lp5390
(I840
I-360
I648
tp5391
asg427
(lp5392
g425
asg221
(lp5393
g219
asg2983
(lp5394
g2981
asg4883
(lp5395
g4881
as(I-190
I908
I616
tp5396
(lp5397
(I497
I302
I677
tp5398
ag1234
asg657
(lp5399
g655
as(I-910
I-296
I608
tp5400
(lp5401
(I-1250
I375
I800
tp5402
asg2207
(lp5403
(I410
I-596
I652
tp5404
a(I-156
I-737
I800
tp5405
asg805
(lp5406
g803
asg2503
(lp5407
g2501
asg2945
(lp5408
g2943
as(I-150
I-1721
I608
tp5409
(lp5410
(I-379
I-998
I640
tp5411
as(I696
I1072
I648
tp5412
(lp5413
(I-433
I1022
I616
tp5414
as(I1111
I-1105
I656
tp5415
(lp5416
(I761
I-14
I650
tp5417
asg4585
(lp5418
g4583
asg5137
(lp5419
g5135
asg2803
(lp5420
g2801
asg2210
(lp5421
g2208
a(I673
I93
I650
tp5422
as(I-76
I-58
I648
tp5423
(lp5424
(I783
I270
I650
tp5425
as(I122
I-684
I710
tp5426
(lp5427
(I1028
I-707
I648
tp5428
as(I530
I1078
I648
tp5429
(lp5430
(I431
I864
I648
tp5431
as(I620
I-722
I647
tp5432
(lp5433
(I-253
I-941
I640
tp5434
asg2743
(lp5435
g2741
asg120
(lp5436
g118
asg1982
(lp5437
g1980
as(I706
I-1507
I640
tp5438
(lp5439
(I964
I-1510
I640
tp5440
asg3706
(lp5441
g3704
asg4083
(lp5442
g4081
as(I148
I-1529
I611
tp5443
(lp5444
(I-513
I-1389
I608
tp5445
asg4518
(lp5446
g4516
as(I74
I71
I650
tp5447
(lp5448
(I-1557
I-371
I608
tp5449
asg3762
(lp5450
g3760
asg1877
(lp5451
g1875
asg4213
(lp5452
g4211
as(I-1424
I784
I800
tp5453
(lp5454
(I38
I1993
I804
tp5455
as(I-176
I-822
I640
tp5456
(lp5457
(I-230
I-1045
I646
tp5458
asg2843
(lp5459
g2841
asg5029
(lp5460
g5027
as(I-485
I-248
I800
tp5461
(lp5462
(I-206
I-979
I800
tp5463
as(I736
I-921
I640
tp5464
(lp5465
(I881
I-1249
I653
tp5466
asg895
(lp5467
g893
asg3331
(lp5468
g3329
asg5056
(lp5469
g5054
asg4741
(lp5470
g4739
asg2899
(lp5471
g2897
asg1449
(lp5472
g1447
asg4904
(lp5473
g4902
as(I-344
I-442
I640
tp5474
(lp5475
(I-756
I-101
I608
tp5476
asg1874
(lp5477
g1872
asg4036
(lp5478
g4034
as(I-1191
I1302
I796
tp5479
(lp5480
(I263
I1822
I608
tp5481
as(I18
I-2000
I608
tp5482
(lp5483
(I-46
I-1688
I608
tp5484
a(I-75
I-1712
I608
tp5485
as(I-1414
I163
I608
tp5486
(lp5487
(I-1240
I151
I734
tp5488
asg4956
(lp5489
g4954
asg5001
(lp5490
g4999
asg672
(lp5491
g670
asg4424
(lp5492
(I-51
I1023
I616
tp5493
asg5076
(lp5494
g5074
asg5117
(lp5495
g5115
as(I-91
I610
I648
tp5496
(lp5497
(I242
I532
I648
tp5498
as(I-817
I-234
I800
tp5499
(lp5500
(I-440
I-346
I800
tp5501
asg3924
(lp5502
g3922
asg2961
(lp5503
g2959
as(I-1291
I424
I800
tp5504
(lp5505
(I-1388
I215
I801
tp5506
as(I1103
I-827
I640
tp5507
(lp5508
(I961
I-514
I648
tp5509
asg1291
(lp5510
g1289
asg622
(lp5511
g620
as(I-1241
I308
I801
tp5512
(lp5513
(I-1363
I426
I800
tp5514
a(I-1184
I963
I804
tp5515
as(I470
I-793
I646
tp5516
(lp5517
(I249
I-797
I641
tp5518
as(I-393
I-75
I640
tp5519
(lp5520
(I-1238
I96
I692
tp5521
asg871
(lp5522
g869
as(I-1533
I-489
I800
tp5523
(lp5524
(I-1556
I-461
I800
tp5525
asg1637
(lp5526
g1635
asg129
(lp5527
g127
asg1916
(lp5528
g1914
asg1197
(lp5529
g1195
asg3010
(lp5530
g3008
a(I-136
I-1492
I608
tp5531
asg938
(lp5532
(I-84
I1009
I616
tp5533
as(I-357
I759
I616
tp5534
(lp5535
(I-517
I773
I616
tp5536
asg2778
(lp5537
g2776
asg3065
(lp5538
g3063
asg104
(lp5539
g102
asg3653
(lp5540
g3651
ag3204
asg1477
(lp5541
g1475
asg2665
(lp5542
g2663
as(I474
I-792
I647
tp5543
(lp5544
(I246
I-797
I641
tp5545
asg1137
(lp5546
g1135
as(I-616
I-1608
I608
tp5547
(lp5548
(I-310
I-1671
I608
tp5549
asg279
(lp5550
g277
asg4330
(lp5551
(I430
I1037
I648
tp5552
asg5398
(lp5553
g5396
asg523
(lp5554
g521
as(I-925
I-250
I800
tp5555
(lp5556
(I-1248
I-230
I800
tp5557
as(I760
I-987
I640
tp5558
(lp5559
(I543
I-676
I649
tp5560
asg597
(lp5561
g595
asg15
(lp5562
g13
as(I787
I-1465
I640
tp5563
(lp5564
(I1082
I-1536
I640
tp5565
asg4324
(lp5566
g4322
asg5133
(lp5567
g5131
asg312
(lp5568
g310
asg3334
(lp5569
g3332
a(I-401
I-1678
I608
tp5570
asg2878
(lp5571
g2876
asg116
(lp5572
g114
as(I625
I-78
I682
tp5573
(lp5574
(I655
I-106
I686
tp5575
asg4392
(lp5576
g4390
asg5414
(lp5577
g5412
asg780
(lp5578
g778
asg5285
(lp5579
g5283
asg2257
(lp5580
(I-1224
I190
I763
tp5581
asg2459
(lp5582
g2457
asg5331
(lp5583
g5329
asg4530
(lp5584
g4528
asg2261
(lp5585
g2259
asg1640
(lp5586
g1638
asg4643
(lp5587
g4641
as(I537
I1280
I648
tp5588
(lp5589
(I364
I1381
I616
tp5590
asg5333
(lp5591
(I991
I-1168
I640
tp5592
as(I975
I-179
I648
tp5593
(lp5594
(I259
I-199
I648
tp5595
asg5130
(lp5596
g5128
asg770
(lp5597
g768
ag4331
asg2348
(lp5598
g2346
asg28
(lp5599
g26
as(I-291
I-130
I640
tp5600
(lp5601
(I685
I489
I648
tp5602
asg4363
(lp5603
g4361
asg218
(lp5604
g216
as(I420
I-724
I646
tp5605
(lp5606
(I430
I-295
I648
tp5607
asg3857
(lp5608
g3855
as(I-337
I-1326
I608
tp5609
(lp5610
(I-383
I-1277
I608
tp5611
as(I133
I-1511
I608
tp5612
(lp5613
(I576
I-1512
I640
tp5614
asg943
(lp5615
g941
asg1245
(lp5616
g1243
as(I-86
I-172
I648
tp5617
(lp5618
(I330
I535
I648
tp5619
asg1423
(lp5620
g1421
as(I32
I1387
I616
tp5621
(lp5622
(I-1121
I1044
I796
tp5623
as(I967
I-628
I648
tp5624
(lp5625
(I500
I-721
I647
tp5626
asg4355
(lp5627
g4353
asg2479
(lp5628
g2477
asg3439
(lp5629
(I712
I1031
I648
tp5630
as(I675
I384
I658
tp5631
(lp5632
(I75
I60
I650
tp5633
ag5336
asg5484
(lp5634
g5482
asg5012
(lp5635
g5010
asg3742
(lp5636
g3740
asg4175
(lp5637
(I-1149
I1200
I796
tp5638
as(I58
I1035
I631
tp5639
(lp5640
(I34
I648
I648
tp5641
asg12
(lp5642
g10
as(I777
I-1
I650
tp5643
(lp5644
(I655
I-106
I686
tp5645
as(I-1146
I1087
I796
tp5646
(lp5647
(I364
I1381
I616
tp5648
as(I-104
I-656
I800
tp5649
(lp5650
(I-270
I-446
I800
tp5651
ag3447
as(I689
I-1508
I640
tp5652
(lp5653
(I293
I-1451
I640
tp5654
a(I480
I-1482
I674
tp5655
asg637
(lp5656
(I854
I-1093
I640
tp5657
asg5327
(lp5658
g5325
asg2119
(lp5659
g2117
as(I-1069
I314
I800
tp5660
(lp5661
(I-1517
I-281
I608
tp5662
as(I688
I482
I648
tp5663
(lp5664
(I689
I-179
I650
tp5665
asg636
(lp5666
g634
asg2351
(lp5667
g2349
as(I-174
I-989
I640
tp5668
(lp5669
(I-261
I-1031
I640
tp5670
as(I40
I1810
I608
tp5671
(lp5672
(I-1197
I995
I796
tp5673
asg5220
(lp5674
g5218
as(I-454
I863
I616
tp5675
(lp5676
(I-631
I1058
I666
tp5677
as(I21
I1302
I616
tp5678
(lp5679
(I-1122
I978
I796
tp5680
asg1887
(lp5681
g1885
asg1025
(lp5682
g1023
asg829
(lp5683
g827
asg811
(lp5684
g809
asg1494
(lp5685
g1492
asg5445
(lp5686
g5443
asg4373
(lp5687
g4371
as(I60
I16
I648
tp5688
(lp5689
(I272
I565
I648
tp5690
as(I1016
I-617
I648
tp5691
(lp5692
(I1067
I-1015
I640
tp5693
asg5146
(lp5694
g5144
asg5514
(lp5695
g5512
asg3588
(lp5696
g3586
asg2070
(lp5697
g2068
asg1535
(lp5698
g1533
asg2132
(lp5699
g2130
as(I87
I513
I648
tp5700
(lp5701
(I101
I120
I648
tp5702
asg2205
(lp5703
g2203
asg2648
(lp5704
(I-1369
I-906
I800
tp5705
asg3969
(lp5706
g3967
as(I-301
I-1144
I608
tp5707
(lp5708
(I-556
I-1768
I608
tp5709
as(I-1742
I475
I800
tp5710
(lp5711
(I-1241
I801
I800
tp5712
asg4494
(lp5713
g4492
as(I-185
I850
I616
tp5714
(lp5715
(I-127
I1066
I616
tp5716
as(I-1181
I570
I800
tp5717
(lp5718
(I-1390
I917
I800
tp5719
as(I-237
I526
I801
tp5720
(lp5721
(I-238
I595
I800
tp5722
as(I-311
I-401
I640
tp5723
(lp5724
(I-380
I-956
I640
tp5725
asg1170
(lp5726
g1168
asg3524
(lp5727
g3522
as(I51
I-64
I648
tp5728
(lp5729
(I90
I94
I650
tp5730
asg1868
(lp5731
g1866
asg1167
(lp5732
g1165
as(I875
I-510
I648
tp5733
(lp5734
(I961
I-282
I648
tp5735
asg5305
(lp5736
g5303
asg4422
(lp5737
g4420
asg2488
(lp5738
g2486
asg453
(lp5739
g451
as(I-768
I66
I800
tp5740
(lp5741
(I-1372
I-30
I608
tp5742
asg443
(lp5743
g441
asg3797
(lp5744
g3795
asg3209
(lp5745
g3207
as(I-1119
I237
I789
tp5746
(lp5747
(I-1255
I868
I800
tp5748
as(I687
I43
I650
tp5749
(lp5750
(I658
I494
I648
tp5751
as(I-1274
I375
I800
tp5752
(lp5753
(I-452
I-341
I800
tp5754
as(I-1435
I-207
I800
tp5755
(lp5756
(I-1544
I-966
I800
tp5757
asg737
(lp5758
g735
asg4224
(lp5759
g4222
as(I-345
I-205
I827
tp5760
(lp5761
(I266
I-258
I648
tp5762
asg2563
(lp5763
g2561
asg2276
(lp5764
g2274
ag1390
asg260
(lp5765
g258
as(I245
I273
I684
tp5766
(lp5767
(I671
I257
I650
tp5768
as(I644
I572
I648
tp5769
(lp5770
(I671
I-265
I650
tp5771
asg3692
(lp5772
g3690
as(I-1310
I-275
I800
tp5773
(lp5774
(I-1643
I426
I800
tp5775
asg4476
(lp5776
g4474
asg711
(lp5777
(I208
I1936
I608
tp5778
as(I-238
I-1092
I626
tp5779
(lp5780
(I-94
I-1456
I608
tp5781
as(I-274
I-1024
I640
tp5782
(lp5783
(I-357
I-1307
I608
tp5784
as(I-1218
I498
I800
tp5785
(lp5786
(I-1264
I888
I800
tp5787
asg4122
(lp5788
g4120
asg5735
(lp5789
g5733
as(I-1508
I-385
I800
tp5790
(lp5791
(I-1538
I-569
I800
tp5792
ag2706
ag1888
asg5425
(lp5793
g5423
asg2866
(lp5794
g2864
asg5677
(lp5795
g5675
asg4235
(lp5796
g4233
a(I-1395
I-260
I608
tp5797
asg5670
(lp5798
g5668
asg4072
(lp5799
(I-705
I-1539
I630
tp5800
asg4127
(lp5801
g4125
asg4971
(lp5802
g4969
asg113
(lp5803
g111
asg3943
(lp5804
g3941
asg2417
(lp5805
g2415
asg4917
(lp5806
g4915
asg5023
(lp5807
(I-1650
I-293
I612
tp5808
a(I-1650
I-293
I612
tp5809
as(I-1656
I-317
I612
tp5810
(lp5811
(I-991
I-244
I608
tp5812
asg2088
(lp5813
g2086
asg2026
(lp5814
g2024
asg2653
(lp5815
g2651
as(I-1237
I393
I800
tp5816
(lp5817
(I-1226
I453
I800
tp5818
as(I325
I-168
I648
tp5819
(lp5820
(I657
I394
I658
tp5821
asg1903
(lp5822
g1901
asg303
(lp5823
g301
asg73
(lp5824
g71
as(I436
I-163
I648
tp5825
(lp5826
(I505
I109
I648
tp5827
asg4722
(lp5828
g4720
asg2249
(lp5829
g2247
as(I-1233
I588
I800
tp5830
(lp5831
(I-1149
I1204
I796
tp5832
asg2161
(lp5833
g2159
ag4500
asg2291
(lp5834
g2289
as(I663
I1316
I648
tp5835
(lp5836
(I583
I1252
I649
tp5837
as(I683
I-979
I640
tp5838
(lp5839
(I760
I-1395
I640
tp5840
asg4939
(lp5841
g4937
as(I166
I-176
I648
tp5842
(lp5843
(I-217
I-239
I800
tp5844
as(I1084
I-949
I640
tp5845
(lp5846
(I969
I-1185
I640
tp5847
asg2135
(lp5848
g2133
asg625
(lp5849
g623
asg5557
(lp5850
g5555
asg148
(lp5851
g146
asg5641
(lp5852
g5639
asg309
(lp5853
g307
as(I-651
I296
I800
tp5854
(lp5855
(I-161
I-577
I800
tp5856
asg1985
(lp5857
g1983
asg5251
(lp5858
g5249
asg2928
(lp5859
g2926
ag5016
a(I-143
I-1039
I649
tp5860
asg361
(lp5861
g359
asg2382
(lp5862
g2380
as(I-855
I-308
I800
tp5863
(lp5864
(I-1374
I-275
I800
tp5865
asg5775
(lp5866
g5773
as(I-198
I-963
I640
tp5867
(lp5868
(I-421
I-1768
I608
tp5869
asg3766
(lp5870
g3764
as(I771
I-1413
I640
tp5871
(lp5872
(I-198
I-1480
I608
tp5873
asg5725
(lp5874
g5723
asg3870
(lp5875
g3868
asg2189
(lp5876
g2187
asg5654
(lp5877
g5652
as(I733
I-311
I650
tp5878
(lp5879
(I-651
I-229
I800
tp5880
asg3791
(lp5881
g3789
ag5819
asg1099
(lp5882
(I1085
I-1535
I640
tp5883
asg5086
(lp5884
g5084
asg4345
(lp5885
g4343
asg3785
(lp5886
g3783
asg4062
(lp5887
g4060
asg5509
(lp5888
g5507
asg4416
(lp5889
g4414
asg5229
(lp5890
g5227
as(I-1167
I778
I800
tp5891
(lp5892
(I-1386
I647
I800
tp5893
asg2270
(lp5894
g2268
asg4280
(lp5895
g4278
asg4485
(lp5896
g4483
asg5195
(lp5897
g5193
asg2791
(lp5898
g2789
asg1999
(lp5899
g1997
asg3440
(lp5900
(I712
I1031
I648
tp5901
asg478
(lp5902
g476
asg4652
(lp5903
g4650
asg3442
(lp5904
(I712
I1031
I648
tp5905
as(I-1093
I120
I702
tp5906
(lp5907
(I-1182
I328
I800
tp5908
as(I-481
I95
I800
tp5909
(lp5910
(I-367
I13
I800
tp5911
asg1526
(lp5912
g1524
asg734
(lp5913
g732
as(I-1665
I-216
I612
tp5914
(lp5915
(I-982
I-237
I608
tp5916
asg5873
(lp5917
g5871
as(I6
I520
I648
tp5918
(lp5919
(I1044
I-461
I648
tp5920
as(I683
I490
I648
tp5921
(lp5922
(I829
I-403
I648
tp5923
ag3399
as(I917
I-1228
I652
tp5924
(lp5925
(I474
I-1796
I604
tp5926
asg2772
(lp5927
(I-1470
I-464
I800
tp5928
asg1506
(lp5929
g1504
asg3844
(lp5930
g3842
as(I901
I-499
I648
tp5931
(lp5932
(I382
I251
I648
tp5933
asg539
(lp5934
g537
as(I621
I-1050
I640
tp5935
(lp5936
(I86
I-900
I644
tp5937
asg960
(lp5938
g958
asg3735
(lp5939
g3733
a(I-869
I-166
I800
tp5940
asg3909
(lp5941
g3907
as(I-1228
I742
I800
tp5942
(lp5943
(I-881
I310
I800
tp5944
ag2595
asg4203
(lp5945
g4201
as(I-878
I352
I800
tp5946
(lp5947
(I-1215
I751
I800
tp5948
asg4291
(lp5949
g4289
asg1726
(lp5950
(I-1698
I510
I800
tp5951
as(I432
I-875
I640
tp5952
(lp5953
(I215
I-908
I640
tp5954
asg2414
(lp5955
g2412
as(I-1039
I-256
I608
tp5956
(lp5957
(I-1605
I-316
I660
tp5958
a(I-1639
I-276
I612
tp5959
a(I-1668
I-282
I612
tp5960
asg4848
(lp5961
g4846
asg5216
(lp5962
g5214
as(I-101
I-1588
I608
tp5963
(lp5964
(I-368
I-1039
I649
tp5965
a(I-1541
I-957
I800
tp5966
asg1376
(lp5967
g1374
asg2183
(lp5968
g2181
as(I-1024
I-1182
I800
tp5969
(lp5970
(I-940
I-1440
I736
tp5971
as(I-2
I-1552
I608
tp5972
(lp5973
(I-125
I-1418
I608
tp5974
a(I-222
I-1275
I608
tp5975
as(I-1520
I40
I800
tp5976
(lp5977
(I-1540
I-373
I800
tp5978
asg215
(lp5979
g213
asg2273
(lp5980
g2271
as(I704
I1119
I648
tp5981
(lp5982
(I30
I946
I618
tp5983
asg2344
(lp5984
g2342
asg4472
(lp5985
g4470
as(I-265
I-286
I800
tp5986
(lp5987
(I-203
I-27
I810
tp5988
as(I209
I547
I648
tp5989
(lp5990
(I24
I-59
I648
tp5991
ag543
asg4071
(lp5992
g4069
asg3549
(lp5993
g3547
as(I-1487
I-738
I800
tp5994
(lp5995
(I-1524
I892
I800
tp5996
as(I-1532
I1019
I796
tp5997
(lp5998
(I-1476
I102
I800
tp5999
asg4329
(lp6000
g4327
as(I-4
I-1704
I608
tp6001
(lp6002
(I-703
I-1618
I629
tp6003
asg5358
(lp6004
g5356
as(I-968
I-254
I800
tp6005
(lp6006
(I-541
I-357
I816
tp6007
asg5015
(lp6008
g5013
asg1912
(lp6009
g1910
asg3556
(lp6010
g3554
as(I671
I352
I650
tp6011
(lp6012
(I364
I241
I648
tp6013
asg3622
(lp6014
g3620
asg4079
(lp6015
g4077
a(I-1639
I-276
I612
tp6016
as(I-1220
I834
I800
tp6017
(lp6018
(I-1336
I1140
I789
tp6019
as(I-40
I-1444
I608
tp6020
(lp6021
(I-241
I-1299
I608
tp6022
as(I376
I-389
I648
tp6023
(lp6024
(I-116
I-399
I650
tp6025
ag1563
asg2219
(lp6026
g2217
as(I374
I-557
I648
tp6027
(lp6028
(I395
I-387
I648
tp6029
asg579
(lp6030
g577
as(I-695
I-219
I616
tp6031
(lp6032
(I-406
I-385
I640
tp6033
asg5188
(lp6034
g5186
asg5093
(lp6035
(I-99
I1548
I608
tp6036
asg4396
(lp6037
g4394
asg4277
(lp6038
g4275
as(I447
I1555
I616
tp6039
(lp6040
(I-1139
I1022
I796
tp6041
asg1523
(lp6042
g1521
asg5307
(lp6043
(I1082
I-1535
I640
tp6044
asg2915
(lp6045
g2913
asg1653
(lp6046
g1651
asg3289
(lp6047
g3287
asg1941
(lp6048
g1939
asg3487
(lp6049
g3485
asg4963
(lp6050
g4961
asg2332
(lp6051
g2330
asg5296
(lp6052
g5294
as(I-1232
I-278
I800
tp6053
(lp6054
(I-1139
I-249
I800
tp6055
asg5996
(lp6056
g5994
as(I-132
I-1068
I800
tp6057
(lp6058
(I-180
I-800
I800
tp6059
asg4541
(lp6060
g4539
asg963
(lp6061
g961
as(I-1360
I-251
I800
tp6062
(lp6063
(I-927
I-311
I800
tp6064
asg2890
(lp6065
g2888
as(I766
I497
I648
tp6066
(lp6067
(I-166
I-76
I648
tp6068
asg3716
(lp6069
g3714
as(I-359
I-362
I640
tp6070
(lp6071
(I-392
I-870
I640
tp6072
asg67
(lp6073
g65
asg2199
(lp6074
g2197
asg1188
(lp6075
g1186
as(I591
I671
I648
tp6076
(lp6077
(I-116
I1235
I616
tp6078
asg3254
(lp6079
(I-1679
I-122
I612
tp6080
asg3358
(lp6081
g3356
asg2594
(lp6082
g2592
asg5709
(lp6083
g5707
asg2828
(lp6084
g2826
ag788
asg3999
(lp6085
g3997
asg1666
(lp6086
g1664
asg3540
(lp6087
g3538
asg4130
(lp6088
g4128
ag5963
asg1900
(lp6089
g1898
asg1121
(lp6090
g1119
asg5163
(lp6091
g5161
as(I717
I-117
I650
tp6092
(lp6093
(I-481
I33
I800
tp6094
asg5243
(lp6095
g5241
asg4604
(lp6096
g4602
asg4271
(lp6097
(I868
I-1520
I640
tp6098
asg3007
(lp6099
g3005
asg1748
(lp6100
(I-88
I-81
I648
tp6101
asg5006
(lp6102
g5004
asg4697
(lp6103
g4695
asg5742
(lp6104
g5740
asg3140
(lp6105
g3138
asg3602
(lp6106
g3600
as(I305
I2116
I636
tp6107
(lp6108
(I-142
I612
I648
tp6109
asg5818
(lp6110
g5816
asg5623
(lp6111
g5621
asg257
(lp6112
g255
asg4913
(lp6113
g4911
as(I132
I176
I648
tp6114
(lp6115
(I-26
I783
I616
tp6116
asg2308
(lp6117
g2306
asg1519
(lp6118
g1517
as(I-278
I-1056
I640
tp6119
(lp6120
(I-9
I-1913
I608
tp6121
asg5991
(lp6122
g5989
asg2737
(lp6123
g2735
as(I-1738
I486
I800
tp6124
(lp6125
(I-1637
I7
I800
tp6126
a(I664
I1344
I648
tp6127
asg4313
(lp6128
g4311
as(I582
I-1758
I640
tp6129
(lp6130
(I251
I-1925
I608
tp6131
asg4788
(lp6132
g4786
asg1634
(lp6133
g1632
asg6068
(lp6134
g6066
asg4959
(lp6135
g4957
asg5213
(lp6136
g5211
asg4951
(lp6137
g4949
asg3280
(lp6138
g3278
asg2668
(lp6139
g2666
as(I-274
I880
I616
tp6140
(lp6141
(I701
I1117
I648
tp6142
asg5047
(lp6143
g5045
asg3295
(lp6144
g3293
asg922
(lp6145
g920
asg1200
(lp6146
g1198
asg2109
(lp6147
g2107
asg5059
(lp6148
g5057
asg1085
(lp6149
g1083
asg2916
(lp6150
(I-143
I-1039
I649
tp6151
asg391
(lp6152
g389
as(I900
I-1591
I640
tp6153
(lp6154
(I772
I-1331
I640
tp6155
asg3468
(lp6156
g3466
asg4900
(lp6157
g4898
asg1739
(lp6158
g1737
asg5518
(lp6159
g5516
asg4575
(lp6160
g4573
asg2609
(lp6161
g2607
ag5769
asg1182
(lp6162
g1180
asg970
(lp6163
(I-275
I2076
I993
tp6164
as(I798
I-686
I648
tp6165
(lp6166
(I1073
I-369
I648
tp6167
asg5525
(lp6168
g5523
asg5434
(lp6169
g5432
asg4209
(lp6170
g4207
asg5673
(lp6171
g5671
asg4625
(lp6172
g4623
asg1219
(lp6173
g1217
asg4012
(lp6174
g4010
asg3187
(lp6175
g3185
asg3320
(lp6176
g3318
asg3458
(lp6177
g3456
asg2701
(lp6178
g2699
asg5712
(lp6179
g5710
asg1827
(lp6180
g1825
asg5391
(lp6181
g5389
asg3645
(lp6182
g3643
asg4303
(lp6183
g4301
a(I-866
I453
I800
tp6184
asg5958
(lp6185
g5956
asg4185
(lp6186
g4183
as(I-1113
I230
I785
tp6187
(lp6188
(I-1257
I752
I800
tp6189
asg1458
(lp6190
g1456
asg4052
(lp6191
g4050
asg4427
(lp6192
g4425
asg5693
(lp6193
g5691
asg502
(lp6194
g500
as(I-326
I-29
I640
tp6195
(lp6196
(I-115
I-64
I648
tp6197
asg2002
(lp6198
g2000
asg3477
(lp6199
g3475
as(I-888
I-280
I800
tp6200
(lp6201
(I-929
I460
I800
tp6202
asg5633
(lp6203
g5631
asg5315
(lp6204
g5313
asg3249
(lp6205
g3247
as(I332
I-682
I656
tp6206
(lp6207
(I593
I-786
I644
tp6208
as(I-1548
I125
I800
tp6209
(lp6210
(I-1498
I-200
I800
tp6211
as(I145
I179
I648
tp6212
(lp6213
(I-64
I-157
I648
tp6214
asg5354
(lp6215
g5352
asg4547
(lp6216
g4545
asg4115
(lp6217
g4113
asg1428
(lp6218
g1426
asg139
(lp6219
g137
asg3474
(lp6220
g3472
asg5417
(lp6221
g5415
asg1550
(lp6222
g1548
asg3312
(lp6223
g3310
asg6197
(lp6224
g6195
asg5224
(lp6225
g5222
as(I-268
I-63
I800
tp6226
(lp6227
(I-1146
I660
I800
tp6228
asg2476
(lp6229
g2474
asg5933
(lp6230
g5931
as(I-432
I1206
I616
tp6231
(lp6232
(I517
I762
I648
tp6233
asg1816
(lp6234
g1814
asg3203
(lp6235
g3201
asg6208
(lp6236
g6206
as(I91
I-831
I640
tp6237
(lp6238
(I-173
I-896
I640
tp6239
asg4700
(lp6240
g4698
asg3722
(lp6241
g3720
ag2101
asg2491
(lp6242
g2489
asg499
(lp6243
g497
asg4838
(lp6244
g4836
asg5342
(lp6245
g5340
ag1617
asg3170
(lp6246
g3168
asg3759
(lp6247
g3757
asg5288
(lp6248
g5286
asg1516
(lp6249
g1514
as(I-1132
I295
I800
tp6250
(lp6251
(I-701
I-190
I800
tp6252
asg886
(lp6253
g884
asg5611
(lp6254
g5609
asg4774
(lp6255
g4772
asg612
(lp6256
g610
asg2232
(lp6257
g2230
asg2746
(lp6258
g2744
asg5276
(lp6259
g5274
asg5124
(lp6260
g5122
as(I536
I-690
I649
tp6261
(lp6262
(I-392
I-1000
I640
tp6263
asg6059
(lp6264
g6057
as(I-1497
I-474
I800
tp6265
(lp6266
(I-1538
I-605
I800
tp6267
asg4767
(lp6268
g4765
asg3373
(lp6269
g3371
as(I-1545
I528
I800
tp6270
(lp6271
(I-1366
I739
I800
tp6272
as(I-246
I-1004
I640
tp6273
(lp6274
(I-126
I-974
I640
tp6275
asg4397
(lp6276
(I-533
I-1604
I608
tp6277
asg2288
(lp6278
g2286
as(I587
I1074
I648
tp6279
(lp6280
(I664
I558
I648
tp6281
as(I-956
I-260
I608
tp6282
(lp6283
(I-1668
I-282
I612
tp6284
asg2625
(lp6285
g2623
asg5178
(lp6286
g5176
asg2676
(lp6287
g2674
asg5837
(lp6288
g5835
asg1587
(lp6289
g1585
asg2453
(lp6290
g2451
asg629
(lp6291
(I1086
I-1214
I640
tp6292
asg6263
(lp6293
g6261
a(I540
I-685
I649
tp6294
as(I-189
I-664
I800
tp6295
(lp6296
(I692
I-876
I640
tp6297
asg1102
(lp6298
g1100
a(I-1243
I853
I800
tp6299
asg6299
(lp6300
(I-1179
I636
I800
tp6301
asg755
(lp6302
g753
asg5476
(lp6303
g5474
as(I343
I180
I648
tp6304
(lp6305
(I-31
I-21
I648
tp6306
a(I320
I-654
I658
tp6307
asg4858
(lp6308
g4856
asg5064
(lp6309
g5062
asg5032
(lp6310
g5030
asg349
(lp6311
g347
asg5570
(lp6312
(I-635
I-1601
I608
tp6313
asg5565
(lp6314
g5563
asg6167
(lp6315
g6165
asg5166
(lp6316
g5164
asg1773
(lp6317
g1771
asg2641
(lp6318
g2639
asg4703
(lp6319
g4701
asg1663
(lp6320
g1661
asg6239
(lp6321
g6237
asg1510
(lp6322
g1508
asg5024
(lp6323
(I-1650
I-293
I612
tp6324
asg5999
(lp6325
g5997
as(I-263
I-836
I640
tp6326
(lp6327
(I24
I-1998
I608
tp6328
asg5501
(lp6329
g5499
asg5169
(lp6330
g5167
asg3978
(lp6331
g3976
ag5935
asg151
(lp6332
g149
as(I-688
I-1591
I619
tp6333
(lp6334
(I-130
I-1650
I608
tp6335
asg6127
(lp6336
(I-1738
I486
I800
tp6337
asg3390
(lp6338
g3388
asg2657
(lp6339
(I1067
I-1123
I640
tp6340
asg5719
(lp6341
g5717
as(I-392
I-464
I800
tp6342
(lp6343
(I-662
I337
I800
tp6344
asg270
(lp6345
g268
asg3702
(lp6346
g3700
asg3309
(lp6347
g3307
asg4196
(lp6348
g4194
asg4872
(lp6349
g4870
asg4745
(lp6350
g4743
as(I-219
I-942
I640
tp6351
(lp6352
(I-298
I-1202
I608
tp6353
asg1559
(lp6354
g1557
a(I625
I92
I650
tp6355
asg3160
(lp6356
g3158
a(I-16
I624
I648
tp6357
asg5440
(lp6358
g5438
asg3739
(lp6359
g3737
asg2030
(lp6360
g2028
asg5812
(lp6361
g5810
asg5549
(lp6362
g5547
asg3481
(lp6363
g3479
asg2996
(lp6364
g2994
asg1232
(lp6365
g1230
a(I-1039
I-256
I608
tp6366
a(I-904
I-270
I608
tp6367
a(I-1039
I-295
I608
tp6368
asg690
(lp6369
g688
asg1239
(lp6370
g1237
asg4637
(lp6371
g4635
asg4868
(lp6372
g4866
asg385
(lp6373
g383
asg3829
(lp6374
g3827
as(I919
I-482
I648
tp6375
(lp6376
(I615
I538
I648
tp6377
asg5318
(lp6378
g5316
as(I646
I-983
I640
tp6379
(lp6380
(I-115
I-889
I640
tp6381
asg1687
(lp6382
g1685
asg647
(lp6383
g645
asg868
(lp6384
g866
as(I-1056
I1129
I796
tp6385
(lp6386
(I-109
I1819
I608
tp6387
asg2485
(lp6388
g2483
asg3398
(lp6389
g3396
asg3634
(lp6390
g3632
asg181
(lp6391
g179
asg4288
(lp6392
g4286
asg1467
(lp6393
g1465
asg5590
(lp6394
g5588
ag5646
as(I212
I276
I648
tp6395
(lp6396
(I42
I46
I650
tp6397
asg3975
(lp6398
g3973
asg2422
(lp6399
(I669
I375
I658
tp6400
asg721
(lp6401
g719
as(I721
I443
I648
tp6402
(lp6403
(I683
I-11
I650
tp6404
asg3098
(lp6405
g3096
asg439
(lp6406
g437
asg2555
(lp6407
g2553
asg6294
(lp6408
(I-392
I-1000
I640
tp6409
as(I958
I-1539
I640
tp6410
(lp6411
(I773
I-1422
I640
tp6412
as(I570
I-1850
I608
tp6413
(lp6414
(I753
I-1349
I640
tp6415
asg4435
(lp6416
g4433
as(I945
I-1195
I640
tp6417
(lp6418
(I525
I-1861
I608
tp6419
asg1284
(lp6420
g1282
asg6335
(lp6421
g6333
asg2958
(lp6422
g2956
as(I118
I361
I648
tp6423
(lp6424
(I-138
I817
I616
tp6425
asg1265
(lp6426
g1263
asg1625
(lp6427
g1623
asg5908
(lp6428
g5906
as(I196
I2054
I666
tp6429
(lp6430
(I-26
I2036
I780
tp6431
asg934
(lp6432
g932
asg1604
(lp6433
g1602
as(I551
I-218
I650
tp6434
(lp6435
(I593
I186
I650
tp6436
asg710
(lp6437
(I208
I1936
I608
tp6438
ag6129
asg2942
(lp6439
g2940
as(I-1127
I212
I771
tp6440
(lp6441
(I-1213
I558
I800
tp6442
asg4544
(lp6443
g4542
asg4521
(lp6444
g4519
asg2279
(lp6445
g2277
asg5405
(lp6446
(I330
I-670
I659
tp6447
asg3683
(lp6448
g3681
asg6297
(lp6449
g6295
asg514
(lp6450
g512
asg6397
(lp6451
g6395
asg5792
(lp6452
g5790
asg5071
(lp6453
g5069
as(I678
I1279
I648
tp6454
(lp6455
(I407
I719
I648
tp6456
asg2309
(lp6457
(I-1750
I480
I800
tp6458
asg4068
(lp6459
g4066
asg5607
(lp6460
g5605
asg1763
(lp6461
g1761
as(I690
I-1237
I648
tp6462
(lp6463
(I765
I-1479
I640
tp6464
asg1073
(lp6465
g1071
asg3966
(lp6466
g3964
asg4831
(lp6467
g4829
asg1034
(lp6468
g1032
asg6214
(lp6469
g6212
asg4920
(lp6470
g4918
asg3173
(lp6471
g3171
asg703
(lp6472
g701
as(I-208
I-956
I640
tp6473
(lp6474
(I-561
I-1625
I608
tp6475
asg4895
(lp6476
g4893
as(I607
I-153
I650
tp6477
(lp6478
(I851
I-417
I648
tp6479
asg3839
(lp6480
(I-443
I-256
I800
tp6481
asg4667
(lp6482
g4665
as(I-1678
I-253
I612
tp6483
(lp6484
(I-533
I-289
I628
tp6485
asg3224
(lp6486
g3222
asg4711
(lp6487
g4709
asg2039
(lp6488
g2037
asg3671
(lp6489
g3669
asg5847
(lp6490
g5845
asg6267
(lp6491
g6265
asg675
(lp6492
g673
asg5680
(lp6493
g5678
as(I149
I212
I648
tp6494
(lp6495
(I422
I-575
I653
tp6496
asg6109
(lp6497
g6107
asg4936
(lp6498
g4934
asg3689
(lp6499
g3687
asg5716
(lp6500
g5714
asg5662
(lp6501
g5660
asg3658
(lp6502
g3656
as(I-1640
I-187
I612
tp6503
(lp6504
(I-620
I-338
I608
tp6505
asg6306
(lp6506
g6304
asg2815
(lp6507
g2813
asg2980
(lp6508
g2978
asg6029
(lp6509
g6027
asg3531
(lp6510
g3529
asg2948
(lp6511
g2946
asg5375
(lp6512
g5373
asg1953
(lp6513
g1951
asg3893
(lp6514
g3891
asg1125
(lp6515
g1123
asg4816
(lp6516
g4814
asg3212
(lp6517
g3210
as(I-251
I704
I800
tp6518
(lp6519
(I121
I473
I648
tp6520
asg2238
(lp6521
g2236
asg6275
(lp6522
g6273
asg3816
(lp6523
g3814
asg4111
(lp6524
g4109
asg4040
(lp6525
g4038
asg6041
(lp6526
g6039
asg4943
(lp6527
g4941
asg4306
(lp6528
g4304
asg4468
(lp6529
g4466
asg5869
(lp6530
g5867
asg465
(lp6531
g463
ag466
asg4177
(lp6532
(I-1452
I1265
I757
tp6533
asg3851
(lp6534
g3849
ag3661
as(I713
I-1618
I640
tp6535
(lp6536
(I-105
I-1368
I608
tp6537
asg4648
(lp6538
g4646
asg3650
(lp6539
g3648
asg6033
(lp6540
g6031
asg163
(lp6541
g161
asg3110
(lp6542
g3108
asg2973
(lp6543
g2971
asg5172
(lp6544
g5170
as(I-983
I-28
I609
tp6545
(lp6546
(I-1640
I-92
I612
tp6547
as(I-182
I-61
I648
tp6548
(lp6549
(I-448
I46
I674
tp6550
asg4714
(lp6551
g4712
asg4348
(lp6552
g4346
asg450
(lp6553
g448
ag5386
asg3029
(lp6554
g3027
asg855
(lp6555
g853
ag5728
asg5960
(lp6556
(I-1039
I-256
I608
tp6557
ag3525
ag6282
a(I-861
I-307
I608
tp6558
a(I-935
I-257
I608
tp6559
asg3940
(lp6560
g3938
ag2847
ag2715
as(I-1414
I1165
I788
tp6561
(lp6562
(I-935
I1024
I743
tp6563
asg4119
(lp6564
(I-487
I-365
I816
tp6565
asg2256
(lp6566
g2254
asg2506
(lp6567
g2504
asg4828
(lp6568
g4826
asg5485
(lp6569
(I18
I-2000
I608
tp6570
asg2023
(lp6571
g2021
asg4482
(lp6572
g4480
asg1207
(lp6573
g1205
asg2061
(lp6574
g2059
asg3193
(lp6575
g3191
asg2421
(lp6576
g2419
asg5832
(lp6577
g5830
asg1800
(lp6578
g1798
as(I213
I-1927
I608
tp6579
(lp6580
(I228
I-1871
I608
tp6581
asg3196
(lp6582
g3194
asg2752
(lp6583
g2750
asg600
(lp6584
g598
asg5411
(lp6585
g5409
asg3936
(lp6586
g3934
asg2152
(lp6587
g2150
as(I-1129
I-220
I608
tp6588
(lp6589
(I-1227
I332
I800
tp6590
asg5038
(lp6591
g5036
asg5035
(lp6592
g5033
asg5463
(lp6593
g5461
asg4488
(lp6594
g4486
ag2829
asg6281
(lp6595
g6279
asg2759
(lp6596
(I-107
I-288
I648
tp6597
asg718
(lp6598
g716
asg6064
(lp6599
g6062
asg5595
(lp6600
g5593
asg4537
(lp6601
g4535
asg5865
(lp6602
g5863
asg1947
(lp6603
g1945
asg3755
(lp6604
g3753
asg2987
(lp6605
g2985
asg1497
(lp6606
g1495
asg4886
(lp6607
g4884
as(I-982
I-237
I608
tp6608
(lp6609
(I-1639
I-322
I612
tp6610
ag5914
as(I697
I-1515
I640
tp6611
(lp6612
(I753
I-1349
I640
tp6613
as(I615
I538
I648
tp6614
(lp6615
(I854
I-385
I648
tp6616
ag6375
as(I841
I-713
I648
tp6617
(lp6618
(I68
I-850
I644
tp6619
asg6563
(lp6620
g6561
asg3036
(lp6621
(I-257
I-1121
I613
tp6622
asg5748
(lp6623
g5746
asg1722
(lp6624
g1720
asg5923
(lp6625
g5921
asg619
(lp6626
g617
ag2636
asg2788
(lp6627
g2786
asg2532
(lp6628
g2530
asg4143
(lp6629
g4141
asg1656
(lp6630
g1654
asg2468
(lp6631
g2466
asg3418
(lp6632
g3416
asg1788
(lp6633
g1786
asg5367
(lp6634
g5365
asg43
(lp6635
g41
asg5940
(lp6636
(I-1401
I860
I800
tp6637
as(I-1253
I648
I800
tp6638
(lp6639
(I-1236
I931
I800
tp6640
asg1580
(lp6641
g1578
ag5663
asg4015
(lp6642
g4013
asg6431
(lp6643
g6429
asg3116
(lp6644
g3114
asg5099
(lp6645
g5097
asg5702
(lp6646
g5700
asg2582
(lp6647
g2580
as(I-1248
I1464
I643
tp6648
(lp6649
(I-799
I1811
I616
tp6650
asg471
(lp6651
g469
asg576
(lp6652
g574
asg490
(lp6653
g488
asg328
(lp6654
(I-1719
I-110
I800
tp6655
asg6355
(lp6656
(I-1508
I1016
I796
tp6657
asg5269
(lp6658
g5267
as(I135
I150
I648
tp6659
(lp6660
(I-122
I1117
I616
tp6661
asg2619
(lp6662
g2617
asg6547
(lp6663
g6545
asg5920
(lp6664
g5918
a(I11
I525
I648
tp6665
asg1216
(lp6666
(I-1532
I-487
I800
tp6667
asg5361
(lp6668
g5359
asg3461
(lp6669
g3459
as(I645
I394
I658
tp6670
(lp6671
(I706
I17
I650
tp6672
as(I-893
I-1501
I704
tp6673
(lp6674
(I-959
I-1309
I800
tp6675
asg5455
(lp6676
g5453
asg4754
(lp6677
(I-746
I2091
I780
tp6678
asg591
(lp6679
g589
a(I-1668
I-282
I612
tp6680
asg4002
(lp6681
g4000
ag1743
asg4819
(lp6682
g4817
asg5757
(lp6683
g5755
asg3675
(lp6684
g3673
asg6675
(lp6685
g6673
asg2469
(lp6686
(I-856
I179
I800
tp6687
asg5948
(lp6688
g5946
asg1405
(lp6689
g1403
asg3076
(lp6690
g3074
asg6233
(lp6691
g6231
asg1159
(lp6692
g1157
asg1446
(lp6693
g1444
asg6142
(lp6694
g6140
asg337
(lp6695
g335
as(I-215
I-1028
I640
tp6696
(lp6697
(I227
I-707
I642
tp6698
a(I288
I-644
I660
tp6699
asg1161
(lp6700
(I899
I-742
I648
tp6701
asg6116
(lp6702
g6114
asg5449
(lp6703
g5447
asg2681
(lp6704
g2679
asg4589
(lp6705
g4587
ag4789
asg5197
(lp6706
(I-1535
I-347
I608
tp6707
as(I-1512
I-513
I800
tp6708
(lp6709
(I-1467
I-708
I800
tp6710
as(I-1212
I-880
I800
tp6711
(lp6712
(I-1562
I-1000
I803
tp6713
as(I641
I779
I648
tp6714
(lp6715
(I810
I-380
I650
tp6716
asg4018
(lp6717
g4016
ag271
asg5160
(lp6718
g5158
asg3546
(lp6719
g3544
asg3981
(lp6720
g3979
asg990
(lp6721
g988
asg5302
(lp6722
g5300
asg1131
(lp6723
g1129
asg4673
(lp6724
g4671
asg2033
(lp6725
g2031
ag5976
as(I-1095
I993
I796
tp6726
(lp6727
(I-14
I2087
I780
tp6728
as(I-321
I-1314
I608
tp6729
(lp6730
(I-307
I-1172
I608
tp6731
asg588
(lp6732
g586
asg3490
(lp6733
g3488
asg5127
(lp6734
g5125
asg3897
(lp6735
g3895
asg6537
(lp6736
g6535
asg6665
(lp6737
(I1044
I-461
I648
tp6738
asg749
(lp6739
g747
asg5827
(lp6740
g5825
asg4439
(lp6741
g4437
asg327
(lp6742
g325
asg5762
(lp6743
g5760
asg3234
(lp6744
g3232
asg2622
(lp6745
g2620
asg1858
(lp6746
g1856
asg4102
(lp6747
g4100
asg3510
(lp6748
g3508
ag2429
asg6126
(lp6749
g6124
asg5926
(lp6750
g5924
asg969
(lp6751
g967
asg4891
(lp6752
g4889
asg1669
(lp6753
g1667
asg6007
(lp6754
g6005
asg877
(lp6755
g875
asg3719
(lp6756
g3717
asg802
(lp6757
g800
asg2740
(lp6758
g2738
asg6464
(lp6759
g6462
asg5840
(lp6760
g5838
asg1590
(lp6761
g1588
asg3946
(lp6762
g3944
asg3756
(lp6763
(I204
I668
I692
tp6764
asg5787
(lp6765
g5785
asg5954
(lp6766
g5952
asg4514
(lp6767
g4512
asg6505
(lp6768
g6503
asg6485
(lp6769
g6483
asg6228
(lp6770
g6226
as(I412
I1455
I616
tp6771
(lp6772
(I440
I1459
I616
tp6773
asg5974
(lp6774
g5972
asg6616
(lp6775
g6614
asg684
(lp6776
g682
asg5754
(lp6777
g5752
as(I-459
I-1191
I608
tp6778
(lp6779
(I-285
I-1068
I637
tp6780
asg2647
(lp6781
g2645
asg6442
(lp6782
g6440
asg4297
(lp6783
g4295
asg1896
(lp6784
g1894
asg3812
(lp6785
g3810
asg4923
(lp6786
g4921
asg5371
(lp6787
g5369
asg6252
(lp6788
g6250
asg4929
(lp6789
g4927
asg6202
(lp6790
g6200
asg1893
(lp6791
g1891
asg34
(lp6792
g32
asg6094
(lp6793
g6092
asg5521
(lp6794
g5519
asg2123
(lp6795
g2121
asg526
(lp6796
g524
as(I71
I581
I648
tp6797
(lp6798
(I381
I518
I648
tp6799
asg5651
(lp6800
g5649
asg4581
(lp6801
g4579
asg6672
(lp6802
g6670
asg5385
(lp6803
g5383
asg6496
(lp6804
g6494
asg3367
(lp6805
g3365
asg2952
(lp6806
g2950
asg1335
(lp6807
g1333
asg5009
(lp6808
g5007
asg2264
(lp6809
g2262
asg6799
(lp6810
g6797
asg6307
(lp6811
(I343
I180
I648
tp6812
asg3337
(lp6813
g3335
as(I460
I976
I648
tp6814
(lp6815
(I-726
I1064
I706
tp6816
asg5531
(lp6817
(I755
I-1484
I640
tp6818
asg6731
(lp6819
g6729
asg160
(lp6820
g158
asg4240
(lp6821
g4238
asg1215
(lp6822
(I-1532
I-487
I800
tp6823
asg6610
(lp6824
g6608
asg2545
(lp6825
g2543
asg4655
(lp6826
g4653
ag914
asg2785
(lp6827
g2783
asg6780
(lp6828
g6778
asg5722
(lp6829
g5720
ag5380
asg5536
(lp6830
g5534
ag3482
asg2434
(lp6831
g2432
asg2539
(lp6832
g2537
asg2569
(lp6833
g2567
asg2064
(lp6834
g2062
asg3283
(lp6835
g3281
as(I-1229
I441
I800
tp6836
(lp6837
(I-1224
I205
I775
tp6838
as(I442
I1025
I648
tp6839
(lp6840
(I667
I479
I648
tp6841
ag4776
ag3858
asg2206
(lp6842
(I410
I-596
I652
tp6843
asg5975
(lp6844
(I-2
I-1552
I608
tp6845
asg2606
(lp6846
g2604
asg3628
(lp6847
g3626
ag4063
as(I1094
I-1091
I640
tp6848
(lp6849
(I814
I-1231
I640
tp6850
asg184
(lp6851
g182
asg6387
(lp6852
g6385
asg3905
(lp6853
g3903
asg5111
(lp6854
g5109
ag5909
asg5971
(lp6855
g5969
asg2560
(lp6856
g2558
asg5422
(lp6857
(I1062
I-786
I648
tp6858
asg254
(lp6859
g252
a(I1017
I-630
I648
tp6860
asg6716
(lp6861
g6714
asg487
(lp6862
g485
ag6379
asg2373
(lp6863
g2371
as(I396
I-1510
I640
tp6864
(lp6865
(I1021
I-1622
I640
tp6866
asg5626
(lp6867
g5624
asg6475
(lp6868
g6473
asg4864
(lp6869
g4862
asg2174
(lp6870
g2172
asg2938
(lp6871
g2936
asg5797
(lp6872
(I-1700
I-122
I616
tp6873
asg3993
(lp6874
g3991
ag5189
asg2871
(lp6875
g2869
asg4294
(lp6876
g4292
asg5402
(lp6877
g5400
asg5560
(lp6878
g5558
asg6520
(lp6879
g6518
asg6344
(lp6880
g6342
asg493
(lp6881
g491
as(I-60
I2031
I780
tp6882
(lp6883
(I-1043
I1747
I608
tp6884
asg1086
(lp6885
(I32
I-1856
I608
tp6886
ag3378
ag4568
ag5688
asg4105
(lp6887
g4103
asg4377
(lp6888
g4375
asg3421
(lp6889
g3419
a(I-1639
I-276
I612
tp6890
asg1553
(lp6891
g1551
asg5988
(lp6892
g5986
asg5498
(lp6893
g5496
asg2566
(lp6894
g2564
asg6404
(lp6895
g6402
asg2984
(lp6896
(I-58
I-877
I640
tp6897
asg4058
(lp6898
g4056
asg6699
(lp6899
(I-215
I-1028
I640
tp6900
asg5237
(lp6901
g5235
asg1938
(lp6902
g1936
asg3286
(lp6903
g3284
asg3996
(lp6904
g3994
asg5263
(lp6905
(I-1730
I-359
I800
tp6906
as(I-1365
I1260
I752
tp6907
(lp6908
(I-1316
I1232
I769
tp6909
asg5428
(lp6910
g5426
asg3216
(lp6911
g3214
asg3781
(lp6912
g3779
asg4852
(lp6913
g4850
as(I-53
I-697
I800
tp6914
(lp6915
(I36
I-736
I759
tp6916
asg5784
(lp6917
g5782
asg5481
(lp6918
g5479
asg3035
(lp6919
g3033
asg3044
(lp6920
g3042
ag6410
asg3631
(lp6921
g3629
asg1176
(lp6922
g1174
asg4822
(lp6923
g4820
ag1581
ag4728
asg4309
(lp6924
g4307
asg564
(lp6925
g562
asg6581
(lp6926
g6579
asg1310
(lp6927
g1308
asg446
(lp6928
g444
asg5044
(lp6929
(I-1577
I-294
I643
tp6930
asg1884
(lp6931
(I702
I-1512
I640
tp6932
asg1842
(lp6933
g1840
asg6728
(lp6934
g6726
asg883
(lp6935
g881
asg6640
(lp6936
g6638
as(I1034
I-1213
I640
tp6937
(lp6938
(I1071
I-817
I643
tp6939
asg3167
(lp6940
g3165
asg6909
(lp6941
g6907
asg107
(lp6942
g105
asg6415
(lp6943
g6413
ag6611
asg5205
(lp6944
g5203
asg1742
(lp6945
g1740
asg5257
(lp6946
g5255
asg3638
(lp6947
g3636
asg4976
(lp6948
g4974
asg2955
(lp6949
g2953
asg5645
(lp6950
g5643
ag5573
asg6155
(lp6951
g6153
asg4877
(lp6952
g4875
asg6025
(lp6953
g6023
asg4561
(lp6954
g4559
asg6939
(lp6955
g6937
asg2660
(lp6956
g2658
asg6866
(lp6957
g6864
asg5944
(lp6958
g5942
asg2411
(lp6959
g2409
asg6003
(lp6960
g6001
asg1060
(lp6961
(I189
I781
I648
tp6962
asg6850
(lp6963
g6848
ag2010
asg79
(lp6964
g77
asg3537
(lp6965
g3535
asg1962
(lp6966
g1960
asg4676
(lp6967
g4674
asg1153
(lp6968
g1151
asg4628
(lp6969
g4626
asg5614
(lp6970
g5612
asg2091
(lp6971
g2089
asg3778
(lp6972
g3776
ag2283
ag4987
asg5768
(lp6973
g5766
ag3925
asg3696
(lp6974
g3694
asg2714
(lp6975
g2712
asg55
(lp6976
g53
ag6771
ag5112
asg3918
(lp6977
g3916
asg4024
(lp6978
g4022
asg3455
(lp6979
g3453
asg2196
(lp6980
g2194
asg4336
(lp6981
g4334
asg4118
(lp6982
g4116
asg166
(lp6983
g164
asg5081
(lp6984
g5079
asg6328
(lp6985
g6326
asg2768
(lp6986
g2766
asg1944
(lp6987
g1942
asg6841
(lp6988
g6839
asg6838
(lp6989
g6836
asg117
(lp6990
(I-1407
I-279
I800
tp6991
asg6419
(lp6992
g6417
asg2017
(lp6993
g2015
asg6436
(lp6994
g6434
asg2036
(lp6995
g2034
asg6650
(lp6996
g6648
asg297
(lp6997
g295
asg6121
(lp6998
g6119
asg5202
(lp6999
g5200
as(I132
I243
I657
tp7000
(lp7001
(I26
I883
I616
tp7002
asg1441
(lp7003
g1439
as(I823
I-537
I648
tp7004
(lp7005
(I1050
I-841
I640
tp7006
asg4321
(lp7007
g4319
asg1012
(lp7008
g1010
asg5043
(lp7009
g5041
asg2542
(lp7010
g2540
asg5089
(lp7011
g5087
asg6816
(lp7012
g6814
asg3954
(lp7013
g3952
as(I-649
I296
I800
tp7014
(lp7015
(I-1191
I601
I800
tp7016
asg5261
(lp7017
g5259
asg95
(lp7018
g93
asg3137
(lp7019
g3135
asg2881
(lp7020
g2879
asg6590
(lp7021
g6588
asg1989
(lp7022
g1987
asg3072
(lp7023
g3070
ag3988
as(I-381
I-476
I640
tp7024
(lp7025
(I-351
I-1044
I649
tp7026
asg4622
(lp7027
g4620
asg4979
(lp7028
g4977
asg3274
(lp7029
g3272
asg231
(lp7030
g229
asg3553
(lp7031
g3551
asg1114
(lp7032
g1112
asg6019
(lp7033
g6017
asg1414
(lp7034
g1412
asg5347
(lp7035
g5345
asg3963
(lp7036
g3961
ag4159
asg6661
(lp7037
g6659
ag951
asg5378
(lp7038
g5376
ag818
asg1678
(lp7039
g1676
asg2425
(lp7040
g2423
asg5893
(lp7041
g5891
asg1134
(lp7042
g1132
asg6272
(lp7043
g6270
asg21
(lp7044
g19
asg4771
(lp7045
g4769
asg5431
(lp7046
g5429
asg7026
(lp7047
g7024
asg3219
(lp7048
g3217
asg4258
(lp7049
g4256
asg3394
(lp7050
g3392
as(I-1511
I-496
I800
tp7051
(lp7052
(I-1393
I-277
I800
tp7053
ag395
asg5856
(lp7054
g5854
asg4869
(lp7055
(I-1208
I986
I796
tp7056
asg4318
(lp7057
g4316
asg3157
(lp7058
g3155
asg3921
(lp7059
g3919
ag5486
asg263
(lp7060
g261
ag1828
asg3434
(lp7061
g3432
asg3666
(lp7062
g3664
asg6072
(lp7063
g6070
asg3119
(lp7064
g3117
asg5751
(lp7065
g5749
asg157
(lp7066
g155
asg3069
(lp7067
g3067
asg731
(lp7068
g729
asg4808
(lp7069
g4806
asg6184
(lp7070
(I-875
I485
I800
tp7071
asg6713
(lp7072
g6711
asg6013
(lp7073
g6011
asg5880
(lp7074
g5878
asg4861
(lp7075
g4859
asg178
(lp7076
g176
asg7002
(lp7077
g7000
asg2999
(lp7078
g2997
asg6357
(lp7079
(I-99
I1446
I608
tp7080
asg2267
(lp7081
g2265
asg1018
(lp7082
g1016
ag1928
asg2603
(lp7083
g2601
asg6055
(lp7084
g6053
asg5983
(lp7085
g5981
asg5323
(lp7086
g5321
asg4406
(lp7087
g4404
asg4229
(lp7088
(I-163
I-1366
I608
tp7089
asg1301
(lp7090
g1299
asg2518
(lp7091
g2516
asg594
(lp7092
g592
asg3745
(lp7093
g3743
ag5464
asg2389
(lp7094
(I-317
I-667
I640
tp7095
asg2213
(lp7096
g2211
asg1725
(lp7097
g1723
asg3446
(lp7098
g3444
asg6456
(lp7099
g6454
asg7016
(lp7100
g7014
asg3800
(lp7101
g3798
asg5299
(lp7102
g5297
asg1364
(lp7103
g1362
asg3543
(lp7104
g3541
asg5106
(lp7105
g5104
asg1399
(lp7106
g1397
asg3864
(lp7107
g3862
asg1420
(lp7108
g1418
asg4631
(lp7109
g4629
asg4596
(lp7110
g4594
asg4283
(lp7111
g4281
asg4813
(lp7112
g4811
asg653
(lp7113
g651
asg3346
(lp7114
g3344
asg1108
(lp7115
g1106
asg5234
(lp7116
g5232
asg5619
(lp7117
g5617
asg5655
(lp7118
(I689
I-1508
I640
tp7119
asg3574
(lp7120
g3572
asg3930
(lp7121
g3928
asg889
(lp7122
g887
asg3177
(lp7123
g3175
asg4834
(lp7124
g4832
asg5781
(lp7125
g5779
asg981
(lp7126
g979
asg4167
(lp7127
g4165
asg3271
(lp7128
g3269
asg1503
(lp7129
g1501
ag6076
asg7006
(lp7130
g7004
asg1402
(lp7131
g1400
ag1780
asg6022
(lp7132
g6020
asg3126
(lp7133
g3124
asg5102
(lp7134
g5100
asg1628
(lp7135
g1626
asg5506
(lp7136
g5504
asg6710
(lp7137
g6708
asg3886
(lp7138
g3884
asg6619
(lp7139
g6617
asg6884
(lp7140
g6882
asg724
(lp7141
g722
asg910
(lp7142
g908
asg3951
(lp7143
g3949
asg3180
(lp7144
g3178
asg4802
(lp7145
g4800
asg6189
(lp7146
g6187
asg5844
(lp7147
g5842
asg4842
(lp7148
g4840
asg987
(lp7149
g985
asg1755
(lp7150
g1753
asg5545
(lp7151
g5543
asg4300
(lp7152
g4298
asg5350
(lp7153
g5348
asg5458
(lp7154
g5456
asg3259
(lp7155
g3257
asg4734
(lp7156
g4732
asg4948
(lp7157
g4946
asg4189
(lp7158
g4187
asg1785
(lp7159
g1783
asg1483
(lp7160
g1481
asg1089
(lp7161
g1087
asg5154
(lp7162
g5152
asg3805
(lp7163
g3803
asg4227
(lp7164
g4225
asg412
(lp7165
g410
asg7053
(lp7166
g7051
asg6425
(lp7167
g6423
asg3041
(lp7168
g3039
asg4762
(lp7169
g4760
asg6211
(lp7170
g6209
asg2216
(lp7171
g2214
asg5602
(lp7172
g5600
asg6698
(lp7173
g6696
asg6550
(lp7174
g6548
asg4455
(lp7175
g4453
asg6479
(lp7176
g6477
asg3794
(lp7177
g3792
asg6916
(lp7178
g6914
asg1813
(lp7179
g1811
asg4274
(lp7180
g4272
asg6860
(lp7181
(I405
I-724
I647
tp7182
asg5515
(lp7183
(I-1241
I308
I801
tp7184
asg2859
(lp7185
g2857
as(I705
I234
I650
tp7186
(lp7187
(I617
I-101
I650
tp7188
asg3148
(lp7189
g3146
asg4784
(lp7190
g4782
asg3596
(lp7191
g3594
asg6353
(lp7192
g6351
asg3606
(lp7193
g3604
asg2527
(lp7194
g2525
asg7188
(lp7195
g7186
as.