ccollections
defaultdict
p1
(c__builtin__
list
p2
tRp3
(I-1453
I-1374
I2
tp4
(lp5
(I386
I-1869
I84
tp6
a(I-155
I-1930
I0
tp7
as(I-43
I1250
I-95
tp8
(lp9
(I183
I1364
I-95
tp10
as(I-31
I-2004
I26
tp11
(lp12
(I-109
I-1964
I0
tp13
as(I308
I-992
I-69
tp14
(lp15
(I118
I-1362
I-74
tp16
as(I19
I-2039
I6
tp17
(lp18
(I305
I-1932
I43
tp19
as(I-765
I489
I-72
tp20
(lp21
(I-812
I245
I-67
tp22
as(I378
I-222
I-74
tp23
(lp24
(I-162
I32
I-67
tp25
as(I-483
I1054
I-95
tp26
(lp27
(I-813
I1826
I-95
tp28
as(I276
I-1120
I-68
tp29
(lp30
(I118
I-1893
I8
tp31
as(I-190
I-2016
I0
tp32
(lp33
(I-628
I-2063
I0
tp34
as(I1237
I-1165
I-73
tp35
(lp36
(I-23
I-1446
I9
tp37
as(I-1979
I470
I-50
tp38
(lp39
(I-1960
I265
I-54
tp40
as(I-202
I-2146
I0
tp41
(lp42
(I240
I-2006
I8
tp43
as(I-503
I-337
I-67
tp44
(lp45
(I-376
I-262
I-67
tp46
as(I608
I-1550
I-60
tp47
(lp48
(I673
I-1488
I-60
tp49
as(I-634
I-1553
I0
tp50
(lp51
(I105
I-1881
I9
tp52
a(I-23
I-2006
I4
tp53
as(I-529
I771
I-80
tp54
(lp55
(I-547
I1529
I-104
tp56
as(I709
I-1538
I-60
tp57
(lp58
(I691
I-1507
I-60
tp59
as(I538
I1308
I-102
tp60
(lp61
(I-4
I1228
I-95
tp62
as(I-884
I-1881
I0
tp63
(lp64
(I-850
I-1110
I-61
tp65
as(I-1734
I763
I-51
tp66
(lp67
(I-1414
I1510
I-51
tp68
as(I205
I-658
I-67
tp69
(lp70
(I577
I-1552
I-60
tp71
as(I-526
I-380
I-67
tp72
(lp73
(I-198
I-107
I-67
tp74
as(I-1022
I562
I-64
tp75
(lp76
(I-964
I544
I-66
tp77
a(I-802
I475
I-70
tp78
a(I-964
I544
I-66
tp79
a(I-802
I476
I-70
tp80
as(I-354
I1541
I-95
tp81
(lp82
(I-1482
I1282
I-51
tp83
as(I-923
I501
I-67
tp84
(lp85
(I-781
I522
I-73
tp86
as(I-1573
I-971
I17
tp87
(lp88
(I-1807
I-928
I29
tp89
as(I-1266
I-277
I78
tp90
(lp91
(I-1537
I-517
I80
tp92
as(I-167
I1284
I-95
tp93
(lp94
(I-899
I1736
I-104
tp95
as(I-2021
I429
I-49
tp96
(lp97
(I-1372
I1445
I-67
tp98
asg6
(lp99
g4
as(I-263
I-135
I-67
tp100
(lp101
(I-338
I-230
I-67
tp102
as(I-1468
I1443
I-51
tp103
(lp104
(I-1671
I628
I-51
tp105
as(I383
I-1830
I68
tp106
(lp107
(I-873
I-1837
I0
tp108
as(I696
I1264
I-101
tp109
(lp110
(I-234
I1262
I-95
tp111
as(I-691
I-335
I-67
tp112
(lp113
(I-825
I-207
I-67
tp114
as(I-209
I-1766
I0
tp115
(lp116
(I-570
I-1471
I9
tp117
as(I1188
I-657
I-71
tp118
(lp119
(I1222
I-615
I-61
tp120
as(I-87
I-1606
I23
tp121
(lp122
(I397
I-1706
I67
tp123
as(I-1160
I-1673
I4
tp124
(lp125
(I-509
I-1988
I0
tp126
as(I165
I1127
I-95
tp127
(lp128
(I-427
I1520
I-95
tp129
as(I742
I1312
I-100
tp130
(lp131
(I438
I1316
I-102
tp132
as(I682
I-1478
I-60
tp133
(lp134
(I1233
I-1166
I-72
tp135
as(I533
I560
I-100
tp136
(lp137
(I257
I704
I-57
tp138
as(I76
I-1449
I107
tp139
(lp140
(I437
I-1317
I-68
tp141
as(I-35
I-1411
I-73
tp142
(lp143
(I-115
I-1472
I10
tp144
as(I-1415
I400
I-53
tp145
(lp146
(I-1456
I174
I-51
tp147
as(I422
I-1754
I75
tp148
(lp149
(I472
I-1761
I-60
tp150
as(I276
I-183
I-78
tp151
(lp152
(I293
I-770
I-68
tp153
as(I586
I411
I-96
tp154
(lp155
(I206
I-1097
I-68
tp156
as(I-677
I1646
I-105
tp157
(lp158
(I-473
I868
I-95
tp159
as(I254
I1425
I-104
tp160
(lp161
(I63
I72
I-99
tp162
as(I1054
I-854
I-71
tp163
(lp164
(I383
I-584
I-69
tp165
as(I-1088
I-1783
I4
tp166
(lp167
(I-192
I-1799
I0
tp168
as(I-279
I-861
I-67
tp169
(lp170
(I-1507
I-821
I20
tp171
as(I-319
I-865
I-67
tp172
(lp173
(I-71
I-1464
I11
tp174
a(I-153
I-876
I-72
tp175
as(I-150
I1256
I-95
tp176
(lp177
(I-289
I1423
I-95
tp178
as(I130
I-578
I-67
tp179
(lp180
(I243
I-1060
I-69
tp181
as(I291
I-1980
I21
tp182
(lp183
(I-1111
I-1390
I2
tp184
a(I205
I-1405
I-69
tp185
as(I61
I-1312
I-77
tp186
(lp187
(I988
I-1189
I-68
tp188
as(I-592
I-2227
I0
tp189
(lp190
(I367
I-1833
I66
tp191
as(I-1153
I-1389
I2
tp192
(lp193
(I-842
I-1200
I-45
tp194
as(I-1347
I-1859
I4
tp195
(lp196
(I-59
I-2049
I-1
tp197
a(I-874
I-1878
I0
tp198
as(I310
I500
I-100
tp199
(lp200
(I313
I808
I-95
tp201
as(I-388
I1364
I-95
tp202
(lp203
(I-1402
I1467
I-51
tp204
as(I940
I-959
I-79
tp205
(lp206
(I598
I-1206
I-71
tp207
a(I-324
I-864
I-67
tp208
a(I587
I-1573
I-60
tp209
as(I-171
I-64
I-67
tp210
(lp211
(I679
I187
I-89
tp212
as(I-900
I1909
I-104
tp213
(lp214
(I-471
I1041
I-95
tp215
as(I416
I-1970
I25
tp216
(lp217
(I179
I-1993
I8
tp218
as(I394
I-2038
I8
tp219
(lp220
(I-150
I-2027
I0
tp221
as(I-149
I-1422
I-73
tp222
(lp223
(I-91
I-1145
I-71
tp224
a(I-153
I-1281
I-69
tp225
as(I-749
I-362
I-67
tp226
(lp227
(I-784
I325
I-67
tp228
as(I-537
I-1588
I0
tp229
(lp230
(I-204
I-1799
I0
tp231
as(I-885
I546
I-67
tp232
(lp233
(I-766
I454
I-68
tp234
as(I-407
I-134
I-67
tp235
(lp236
(I-804
I60
I-67
tp237
as(I0
I-1903
I73
tp238
(lp239
(I388
I-1827
I69
tp240
as(I-827
I-193
I-67
tp241
(lp242
(I-795
I340
I-38
tp243
as(I-1522
I240
I-50
tp244
(lp245
(I-1758
I-674
I102
tp246
as(I-151
I1306
I-95
tp247
(lp248
(I884
I1023
I-87
tp249
as(I-1045
I-1593
I4
tp250
(lp251
(I-433
I-1563
I0
tp252
as(I-282
I-2102
I0
tp253
(lp254
(I-806
I-1919
I0
tp255
as(I-321
I-1528
I1
tp256
(lp257
(I326
I-2008
I8
tp258
as(I369
I-1752
I75
tp259
(lp260
(I766
I-1394
I-73
tp261
as(I1132
I-765
I-71
tp262
(lp263
(I325
I-1319
I-68
tp264
as(I1255
I-1126
I-72
tp265
(lp266
(I-1040
I-824
I-67
tp267
a(I611
I-1550
I-60
tp268
a(I618
I-1527
I-60
tp269
a(I674
I-1490
I-60
tp270
a(I-834
I1734
I-101
tp271
as(I-761
I-1951
I0
tp272
(lp273
(I-1029
I-1724
I4
tp274
as(I370
I-2075
I8
tp275
(lp276
(I479
I-1990
I8
tp277
as(I-725
I-1768
I0
tp278
(lp279
(I-709
I-1889
I0
tp280
as(I660
I-1427
I-65
tp281
(lp282
(I537
I-1276
I-68
tp283
as(I-1159
I-1759
I4
tp284
(lp285
(I-370
I-2035
I0
tp286
as(I652
I829
I-100
tp287
(lp288
(I-51
I1292
I-95
tp289
as(I122
I-1708
I2
tp290
(lp291
(I450
I-2116
I8
tp292
as(I-1937
I292
I-54
tp293
(lp294
(I-1560
I490
I-54
tp295
as(I-967
I2017
I-96
tp296
(lp297
(I-469
I1112
I-95
tp298
as(I-787
I416
I-67
tp299
(lp300
(I-851
I398
I-67
tp301
as(I-882
I-130
I-67
tp302
(lp303
(I-835
I485
I-69
tp304
a(I-812
I130
I-67
tp305
as(I98
I-2038
I8
tp306
(lp307
(I-716
I-1809
I0
tp308
as(I758
I-1452
I-65
tp309
(lp310
(I472
I-1638
I2
tp311
as(I179
I1167
I-95
tp312
(lp313
(I-22
I1187
I-95
tp314
as(I328
I-2089
I8
tp315
(lp316
(I17
I-2028
I6
tp317
as(I375
I-1844
I59
tp318
(lp319
(I-481
I-2249
I1
tp320
a(I-630
I-2271
I7
tp321
as(I106
I326
I-99
tp322
(lp323
(I485
I1295
I-102
tp324
as(I314
I-2097
I8
tp325
(lp326
(I15
I-2029
I5
tp327
as(I-455
I70
I-67
tp328
(lp329
(I-121
I-41
I-67
tp330
as(I280
I-715
I-69
tp331
(lp332
(I345
I22
I-85
tp333
a(I489
I201
I-87
tp334
as(I273
I851
I-102
tp335
(lp336
(I244
I692
I-103
tp337
as(I-31
I-1201
I-73
tp338
(lp339
(I-114
I-1016
I-73
tp340
as(I-1645
I756
I-51
tp341
(lp342
(I305
I1057
I-105
tp343
as(I-746
I530
I-72
tp344
(lp345
(I-835
I-98
I-67
tp346
as(I477
I1379
I-102
tp347
(lp348
(I711
I1266
I-101
tp349
as(I-571
I-787
I-67
tp350
(lp351
(I-240
I-671
I-67
tp352
as(I317
I-1848
I52
tp353
(lp354
(I-600
I-2257
I2
tp355
as(I513
I-1349
I-67
tp356
(lp357
(I-30
I-1283
I-73
tp358
as(I319
I-829
I-69
tp359
(lp360
(I-48
I-1151
I-71
tp361
as(I957
I1225
I-87
tp362
(lp363
(I768
I982
I-97
tp364
as(I-291
I-822
I-67
tp365
(lp366
(I324
I-1954
I84
tp367
as(I-2008
I438
I-48
tp368
(lp369
(I-1642
I-713
I80
tp370
as(I-184
I1306
I-95
tp371
(lp372
(I-1028
I1904
I-100
tp373
as(I-443
I-1528
I1
tp374
(lp375
(I1246
I-1163
I-73
tp376
as(I75
I32
I-99
tp377
(lp378
(I126
I316
I-99
tp379
as(I-37
I1259
I-95
tp380
(lp381
(I-1523
I1547
I-51
tp382
as(I-745
I513
I-72
tp383
(lp384
(I-881
I-87
I-67
tp385
as(I539
I-1708
I-60
tp386
(lp387
(I669
I-1596
I-60
tp388
a(I580
I-1727
I-60
tp389
as(I329
I-1559
I27
tp390
(lp391
(I381
I-1829
I69
tp392
as(I40
I-1172
I-71
tp393
(lp394
(I-498
I-623
I-67
tp395
as(I-1080
I-1708
I4
tp396
(lp397
(I-676
I-2055
I0
tp398
as(I140
I-2014
I8
tp399
(lp400
(I222
I-1893
I8
tp401
as(I-70
I1317
I-95
tp402
(lp403
(I165
I1170
I-95
tp404
as(I-1266
I369
I-51
tp405
(lp406
(I-1452
I393
I-52
tp407
as(I-169
I-836
I-67
tp408
(lp409
(I-555
I-897
I-67
tp410
as(I1235
I-1165
I-72
tp411
(lp412
(I485
I-1315
I-68
tp413
as(I-515
I-179
I-50
tp414
(lp415
(I21
I-40
I-79
tp416
as(I22
I-2066
I6
tp417
(lp418
(I397
I-1603
I27
tp419
as(I354
I-1734
I75
tp420
(lp421
(I667
I-1678
I-60
tp422
as(I-1720
I636
I-51
tp423
(lp424
(I-1564
I1377
I-51
tp425
as(I-116
I-1001
I-73
tp426
(lp427
(I-235
I-655
I-67
tp428
as(I-1904
I-446
I72
tp429
(lp430
(I-1721
I-552
I80
tp431
as(I890
I1220
I-87
tp432
(lp433
(I710
I899
I-100
tp434
as(I-1813
I-79
I-47
tp435
(lp436
(I-2024
I186
I-54
tp437
as(I-106
I-83
I-67
tp438
(lp439
(I-513
I-403
I-67
tp440
as(I-967
I-806
I-67
tp441
(lp442
(I-854
I-1376
I-5
tp443
asg102
(lp444
g100
as(I587
I-1349
I-73
tp445
(lp446
(I673
I-1532
I-60
tp447
asg249
(lp448
g247
as(I151
I1189
I-95
tp449
(lp450
(I-1041
I1943
I-98
tp451
as(I-1554
I414
I-53
tp452
(lp453
(I-1672
I328
I-43
tp454
asg144
(lp455
g142
as(I-2014
I-385
I50
tp456
(lp457
(I-1649
I-498
I80
tp458
as(I-1705
I465
I-53
tp459
(lp460
(I-2017
I-370
I50
tp461
as(I266
I-1970
I16
tp462
(lp463
(I317
I-1831
I52
tp464
as(I-862
I-133
I78
tp465
(lp466
(I-1355
I-402
I78
tp467
as(I26
I1245
I-95
tp468
(lp469
(I133
I1337
I-95
tp470
as(I-80
I-1143
I-71
tp471
(lp472
(I176
I-1565
I-74
tp473
as(I-1527
I-952
I13
tp474
(lp475
(I-1496
I-791
I14
tp476
as(I-1803
I-1272
I4
tp477
(lp478
(I-1266
I-1546
I4
tp479
as(I543
I218
I-88
tp480
(lp481
(I535
I641
I-99
tp482
as(I135
I1241
I-95
tp483
(lp484
(I-1449
I1367
I-51
tp485
a(I-158
I1261
I-95
tp486
as(I330
I-1850
I54
tp487
(lp488
(I340
I-1943
I37
tp489
as(I-127
I-1725
I0
tp490
(lp491
(I-27
I-827
I-75
tp492
as(I-1698
I660
I-51
tp493
(lp494
(I-1690
I-116
I-47
tp495
as(I-1444
I1520
I-51
tp496
(lp497
(I-1839
I850
I-51
tp498
as(I-1965
I-455
I51
tp499
(lp500
(I-2001
I-182
I7
tp501
as(I-655
I5
I-67
tp502
(lp503
(I318
I-619
I-70
tp504
as(I691
I949
I-100
tp505
(lp506
(I80
I-1786
I107
tp507
as(I482
I-1197
I-70
tp508
(lp509
(I354
I-1093
I-65
tp510
a(I354
I-1084
I-64
tp511
as(I-1543
I1298
I-51
tp512
(lp513
(I-154
I1365
I-95
tp514
as(I-68
I-1895
I0
tp515
(lp516
(I-39
I-1979
I3
tp517
as(I-684
I36
I-67
tp518
(lp519
(I-408
I-66
I-67
tp520
as(I362
I-1856
I82
tp521
(lp522
(I-561
I-1471
I9
tp523
as(I-1386
I444
I-53
tp524
(lp525
(I-1783
I362
I-53
tp526
as(I96
I-411
I-99
tp527
(lp528
(I215
I1003
I-95
tp529
as(I-79
I-1393
I-73
tp530
(lp531
(I-128
I-1487
I4
tp532
a(I-640
I-1593
I0
tp533
a(I1234
I-1140
I-72
tp534
a(I539
I-1349
I-68
tp535
as(I224
I-9
I-80
tp536
(lp537
(I866
I675
I-85
tp538
as(I-473
I-1546
I0
tp539
(lp540
(I-880
I-1450
I0
tp541
as(I124
I-1422
I-68
tp542
(lp543
(I-579
I-16
I-67
tp544
a(I566
I319
I-91
tp545
as(I-1490
I1302
I-51
tp546
(lp547
(I-993
I1272
I-95
tp548
as(I-512
I1606
I-103
tp549
(lp550
(I-558
I921
I-95
tp551
as(I904
I642
I-85
tp552
(lp553
(I-105
I1332
I-95
tp554
a(I25
I1267
I-95
tp555
as(I-671
I-410
I-67
tp556
(lp557
(I-820
I481
I-70
tp558
as(I-108
I1276
I-95
tp559
(lp560
(I-1702
I1465
I-51
tp561
as(I-1835
I-444
I80
tp562
(lp563
(I-1995
I-343
I50
tp564
as(I-1462
I1382
I-51
tp565
(lp566
(I14
I1276
I-95
tp567
a(I-1739
I504
I-52
tp568
as(I-215
I1333
I-95
tp569
(lp570
(I-411
I1618
I-95
tp571
asg92
(lp572
g90
as(I-660
I736
I-71
tp573
(lp574
(I-553
I1179
I-95
tp575
as(I-78
I-1447
I10
tp576
(lp577
(I-241
I-1590
I0
tp578
as(I-1116
I-316
I78
tp579
(lp580
(I-965
I-169
I76
tp581
as(I-151
I-2147
I0
tp582
(lp583
(I358
I-1832
I67
tp584
as(I336
I39
I-84
tp585
(lp586
(I283
I0
I-80
tp587
as(I-598
I1368
I-102
tp588
(lp589
(I-574
I935
I-95
tp590
as(I-556
I720
I-74
tp591
(lp592
(I1104
I1134
I-87
tp593
as(I160
I-1964
I8
tp594
(lp595
(I737
I1323
I-101
tp596
as(I-783
I70
I-67
tp597
(lp598
(I-789
I421
I-67
tp599
as(I-688
I-2
I-67
tp600
(lp601
(I-4
I-36
I-67
tp602
asg46
(lp603
g44
as(I422
I-1741
I75
tp604
(lp605
(I549
I-1672
I-48
tp606
as(I397
I-1603
I27
tp607
(lp608
(I341
I-1836
I64
tp609
ag417
as(I683
I-247
I-80
tp610
(lp611
(I466
I710
I-102
tp612
asg392
(lp613
g390
as(I-1036
I-1756
I4
tp614
(lp615
(I-1099
I-1410
I2
tp616
as(I283
I-806
I-69
tp617
(lp618
(I810
I1055
I-87
tp619
as(I-1010
I-1824
I4
tp620
(lp621
(I-1049
I-1618
I4
tp622
as(I275
I935
I-103
tp623
(lp624
(I867
I675
I-85
tp625
asg159
(lp626
g157
as(I-1565
I1330
I-51
tp627
(lp628
(I-1682
I623
I-51
tp629
as(I-468
I792
I-91
tp630
(lp631
(I-513
I1437
I-104
tp632
as(I-358
I1549
I-95
tp633
(lp634
(I-1526
I1309
I-51
tp635
as(I-1935
I-461
I62
tp636
(lp637
(I-2046
I-109
I-39
tp638
as(I-1070
I569
I-63
tp639
(lp640
(I-1684
I175
I-50
tp641
as(I-84
I-1654
I0
tp642
(lp643
(I-1417
I-1341
I2
tp644
as(I-1564
I-148
I-19
tp645
(lp646
(I-1150
I626
I-68
tp647
as(I337
I434
I-96
tp648
(lp649
(I-597
I-2256
I1
tp650
as(I127
I1258
I-95
tp651
(lp652
(I-1562
I1334
I-51
tp653
as(I703
I-1278
I-71
tp654
(lp655
(I543
I-1328
I-68
tp656
as(I317
I-1962
I29
tp657
(lp658
(I-521
I-2190
I0
tp659
as(I-746
I-385
I-67
tp660
(lp661
(I-741
I-406
I-67
tp662
as(I35
I1267
I-95
tp663
(lp664
(I-974
I1438
I-101
tp665
as(I768
I-992
I-73
tp666
(lp667
(I224
I-1405
I-68
tp668
as(I-503
I678
I-77
tp669
(lp670
(I-1409
I396
I-53
tp671
as(I421
I-1791
I75
tp672
(lp673
(I388
I-1828
I68
tp674
as(I1104
I1189
I-87
tp675
(lp676
(I-1502
I1350
I-51
tp677
as(I-1585
I1475
I-51
tp678
(lp679
(I-1152
I1733
I-98
tp680
as(I-1343
I-1865
I4
tp681
(lp682
(I-1359
I-1503
I2
tp683
as(I106
I327
I-99
tp684
(lp685
(I82
I10
I-99
tp686
as(I-570
I-625
I-67
tp687
(lp688
(I-1527
I92
I-51
tp689
as(I401
I-2084
I8
tp690
(lp691
(I-2038
I-222
I33
tp692
asg337
(lp693
g335
as(I-1753
I-1232
I3
tp694
(lp695
(I-558
I-779
I-54
tp696
as(I729
I1277
I-101
tp697
(lp698
(I176
I1235
I-95
tp699
as(I128
I1200
I-95
tp700
(lp701
(I-1079
I1498
I-102
tp702
as(I-1304
I-1579
I4
tp703
(lp704
(I-1800
I-612
I80
tp705
as(I601
I-1574
I-60
tp706
(lp707
(I1272
I-1036
I-72
tp708
as(I-1042
I1385
I-102
tp709
(lp710
(I114
I1254
I-95
tp711
as(I-1491
I1426
I-51
tp712
(lp713
(I-2024
I-182
I7
tp714
as(I-1659
I-642
I80
tp715
(lp716
(I-1971
I-438
I50
tp717
as(I-524
I1227
I-95
tp718
(lp719
(I-594
I576
I-70
tp720
asg467
(lp721
g465
as(I-1610
I1146
I-51
tp722
(lp723
(I-1777
I404
I-53
tp724
as(I-623
I1625
I-104
tp725
(lp726
(I-1560
I1281
I-27
tp727
as(I-494
I1334
I-103
tp728
(lp729
(I-566
I913
I-95
tp730
as(I-120
I-1471
I10
tp731
(lp732
(I-150
I-1707
I0
tp733
as(I-1059
I1309
I-103
tp734
(lp735
(I-1498
I1225
I-51
tp736
asg668
(lp737
g666
as(I818
I1051
I-87
tp738
(lp739
(I1104
I987
I-87
tp740
as(I-122
I-1530
I0
tp741
(lp742
(I-90
I-1898
I0
tp743
as(I-458
I1192
I-95
tp744
(lp745
(I-563
I1031
I-95
tp746
as(I-812
I335
I-67
tp747
(lp748
(I-881
I-87
I-67
tp749
as(I-1786
I454
I-53
tp750
(lp751
(I-1594
I694
I-51
tp752
as(I-1020
I551
I-63
tp753
(lp754
(I-742
I597
I-71
tp755
as(I107
I-2068
I44
tp756
(lp757
(I130
I-2076
I8
tp758
as(I732
I888
I-100
tp759
(lp760
(I1103
I1030
I-87
tp761
as(I117
I1306
I-95
tp762
(lp763
(I6
I1207
I-95
tp764
as(I-180
I-1471
I8
tp765
(lp766
(I-1190
I-1856
I4
tp767
as(I-1387
I1586
I-51
tp768
(lp769
(I-1006
I1734
I-99
tp770
as(I-619
I672
I-72
tp771
(lp772
(I-1736
I510
I-53
tp773
a(I-591
I663
I-73
tp774
as(I212
I-1260
I-70
tp775
(lp776
(I598
I-1427
I-65
tp777
as(I-637
I1375
I-101
tp778
(lp779
(I176
I1202
I-95
tp780
a(I-517
I1034
I-95
tp781
as(I-1399
I1434
I-51
tp782
(lp783
(I-1597
I1082
I-51
tp784
as(I-1489
I1357
I-51
tp785
(lp786
(I-1142
I1670
I-100
tp787
asg379
(lp788
g377
as(I24
I1239
I-95
tp789
(lp790
(I-928
I1748
I-102
tp791
as(I995
I-729
I-71
tp792
(lp793
(I454
I-1302
I-68
tp794
as(I-768
I-2009
I0
tp795
(lp796
(I-815
I-1568
I0
tp797
as(I692
I-1544
I-60
tp798
(lp799
(I723
I-1163
I-71
tp800
as(I-923
I28
I-62
tp801
(lp802
(I-755
I180
I-67
tp803
as(I1072
I-1008
I-75
tp804
(lp805
(I173
I-1427
I-68
tp806
as(I355
I-1826
I71
tp807
(lp808
(I488
I-2115
I11
tp809
as(I971
I-682
I-71
tp810
(lp811
(I554
I-1682
I-56
tp812
as(I-1571
I1323
I-51
tp813
(lp814
(I-880
I1394
I-101
tp815
as(I-1303
I436
I-52
tp816
(lp817
(I-1709
I748
I-51
tp818
as(I201
I-1772
I7
tp819
(lp820
(I78
I-1979
I8
tp821
as(I-689
I-330
I-67
tp822
(lp823
(I-506
I-650
I-67
tp824
as(I680
I1313
I-101
tp825
(lp826
(I1104
I1134
I-87
tp827
as(I671
I-1174
I-71
tp828
(lp829
(I1242
I-1163
I-73
tp830
as(I-1432
I1384
I-51
tp831
(lp832
(I648
I1309
I-102
tp833
a(I-1546
I1329
I-51
tp834
as(I-1665
I1513
I-51
tp835
(lp836
(I46
I1265
I-95
tp837
as(I-1724
I-264
I80
tp838
(lp839
(I-1663
I1538
I-51
tp840
as(I722
I549
I-97
tp841
(lp842
(I867
I677
I-85
tp843
as(I749
I-1409
I-66
tp844
(lp845
(I675
I-1490
I-60
tp846
as(I-1508
I1370
I-51
tp847
(lp848
(I535
I1337
I-102
tp849
as(I39
I-1085
I-69
tp850
(lp851
(I-548
I-732
I-67
tp852
as(I698
I-1575
I-60
tp853
(lp854
(I412
I-1277
I-68
tp855
asg830
(lp856
g828
as(I151
I1229
I-95
tp857
(lp858
(I-901
I1405
I-101
tp859
as(I-1588
I468
I-53
tp860
(lp861
(I-1520
I666
I-51
tp862
as(I-91
I-1901
I0
tp863
(lp864
(I-590
I-1485
I4
tp865
as(I-521
I697
I-75
tp866
(lp867
(I-1051
I506
I-62
tp868
as(I369
I-1823
I72
tp869
(lp870
(I-160
I-2262
I1
tp871
as(I344
I-1923
I99
tp872
(lp873
(I195
I-1748
I5
tp874
as(I-1727
I1015
I-51
tp875
(lp876
(I-1225
I1664
I-97
tp877
as(I728
I679
I-99
tp878
(lp879
(I-117
I1351
I-95
tp880
as(I-29
I-1444
I12
tp881
(lp882
(I178
I-1165
I-70
tp883
as(I-555
I701
I-73
tp884
(lp885
(I-975
I520
I-64
tp886
as(I8
I-2037
I6
tp887
(lp888
(I-274
I-2236
I1
tp889
as(I789
I1276
I-87
tp890
(lp891
(I532
I255
I-88
tp892
as(I-1913
I-1094
I7
tp893
(lp894
(I-166
I-1836
I0
tp895
a(I349
I-1792
I75
tp896
a(I326
I-1867
I52
tp897
as(I-1
I1263
I-95
tp898
(lp899
(I-504
I1249
I-95
tp900
as(I-863
I1822
I-103
tp901
(lp902
(I-392
I1071
I-61
tp903
as(I-368
I-688
I-67
tp904
(lp905
(I-748
I-1044
I-63
tp906
as(I-1699
I634
I-22
tp907
(lp908
(I-1672
I-760
I80
tp909
as(I139
I-1412
I-69
tp910
(lp911
(I-83
I-1389
I-73
tp912
as(I179
I1100
I-95
tp913
(lp914
(I872
I671
I-85
tp915
as(I-134
I-1141
I-73
tp916
(lp917
(I-91
I-1744
I37
tp918
as(I-777
I-1850
I0
tp919
(lp920
(I70
I-2051
I8
tp921
asg758
(lp922
g756
as(I-1637
I555
I-51
tp923
(lp924
(I-1613
I1233
I-51
tp925
as(I152
I-1823
I8
tp926
(lp927
(I371
I-2010
I8
tp928
as(I528
I-1836
I52
tp929
(lp930
(I447
I-2008
I23
tp931
as(I-457
I1345
I-103
tp932
(lp933
(I87
I1291
I-95
tp934
as(I513
I180
I-87
tp935
(lp936
(I5
I-77
I-70
tp937
as(I-829
I473
I-69
tp938
(lp939
(I-975
I632
I-63
tp940
as(I-1502
I1297
I-51
tp941
(lp942
(I-221
I1336
I-95
tp943
as(I-1534
I-84
I-47
tp944
(lp945
(I-1626
I1394
I-51
tp946
as(I-685
I1401
I-101
tp947
(lp948
(I-573
I1234
I-95
tp949
as(I-509
I1207
I-95
tp950
(lp951
(I-845
I1867
I-95
tp952
as(I304
I1148
I-106
tp953
(lp954
(I-402
I1471
I-95
tp955
asg7
(lp956
(I-1453
I-1374
I2
tp957
as(I-155
I-2265
I1
tp958
(lp959
(I-1100
I-1706
I4
tp960
as(I-581
I688
I-73
tp961
(lp962
(I-1276
I429
I-51
tp963
as(I47
I-1384
I-73
tp964
(lp965
(I637
I-1192
I-71
tp966
asg77
(lp967
g75
a(I-1022
I562
I-64
tp968
asg900
(lp969
g898
a(I-862
I1900
I-104
tp970
as(I-1633
I997
I-25
tp971
(lp972
(I-948
I1968
I-103
tp973
as(I-186
I-1766
I0
tp974
(lp975
(I-1344
I-1860
I4
tp976
as(I-544
I1200
I-95
tp977
(lp978
(I-686
I1469
I-101
tp979
as(I107
I1235
I-95
tp980
(lp981
(I-495
I1439
I-103
tp982
as(I-33
I-1
I-67
tp983
(lp984
(I12
I-40
I-73
tp985
as(I-4
I-1069
I-69
tp986
(lp987
(I548
I-1360
I-70
tp988
as(I114
I-1212
I-72
tp989
(lp990
(I666
I-1425
I-65
tp991
as(I376
I723
I-103
tp992
(lp993
(I894
I651
I-85
tp994
as(I-779
I-1220
I-40
tp995
(lp996
(I-789
I-1285
I-20
tp997
as(I238
I-2030
I8
tp998
(lp999
(I-464
I-2227
I1
tp1000
as(I307
I-2013
I8
tp1001
(lp1002
(I358
I-1801
I75
tp1003
as(I-71
I-2039
I-1
tp1004
(lp1005
(I373
I-1809
I75
tp1006
asg443
(lp1007
g441
as(I-908
I1906
I-103
tp1008
(lp1009
(I-251
I1327
I-95
tp1010
as(I-852
I388
I-67
tp1011
(lp1012
(I-503
I1294
I-95
tp1013
asg277
(lp1014
g275
as(I-2012
I433
I-49
tp1015
(lp1016
(I-1107
I-1796
I4
tp1017
as(I-1229
I407
I-52
tp1018
(lp1019
(I-1108
I509
I-59
tp1020
as(I135
I1199
I-95
tp1021
(lp1022
(I-958
I1717
I-100
tp1023
as(I439
I1352
I-102
tp1024
(lp1025
(I-522
I1352
I-104
tp1026
as(I-813
I-1876
I0
tp1027
(lp1028
(I-478
I-2179
I0
tp1029
as(I610
I-1539
I-60
tp1030
(lp1031
(I1233
I-1166
I-72
tp1032
as(I-727
I-1475
I0
tp1033
(lp1034
(I-851
I-1477
I0
tp1035
as(I362
I-1852
I53
tp1036
(lp1037
(I-166
I-1805
I0
tp1038
as(I85
I311
I-99
tp1039
(lp1040
(I194
I973
I-95
tp1041
as(I-1726
I493
I-53
tp1042
(lp1043
(I-805
I510
I-72
tp1044
as(I-788
I-1013
I-63
tp1045
(lp1046
(I-709
I-1995
I0
tp1047
as(I139
I-1961
I8
tp1048
(lp1049
(I-642
I-2328
I13
tp1050
as(I-503
I-324
I-67
tp1051
(lp1052
(I-842
I205
I-67
tp1053
as(I-717
I1376
I-99
tp1054
(lp1055
(I-1482
I1282
I-51
tp1056
as(I290
I800
I-103
tp1057
(lp1058
(I156
I1251
I-95
tp1059
asg988
(lp1060
g986
as(I-3
I1277
I-95
tp1061
(lp1062
(I-235
I1441
I-95
tp1063
as(I-1063
I-1881
I4
tp1064
(lp1065
(I375
I-1994
I14
tp1066
as(I-625
I-1984
I0
tp1067
(lp1068
(I-1286
I-1758
I4
tp1069
as(I386
I-1866
I52
tp1070
(lp1071
(I-703
I-1742
I0
tp1072
as(I-1199
I-1632
I4
tp1073
(lp1074
(I-1052
I-1541
I36
tp1075
as(I-1178
I492
I-54
tp1076
(lp1077
(I-778
I662
I-71
tp1078
as(I-804
I-1053
I-63
tp1079
(lp1080
(I79
I218
I-99
tp1081
as(I-569
I1276
I-95
tp1082
(lp1083
(I-1492
I1384
I-51
tp1084
as(I-276
I1446
I-95
tp1085
(lp1086
(I-397
I1354
I-95
tp1087
as(I-401
I1351
I-95
tp1088
(lp1089
(I2
I1226
I-95
tp1090
as(I-1087
I1984
I-98
tp1091
(lp1092
(I-567
I1250
I-95
tp1093
a(I184
I1202
I-95
tp1094
a(I-1542
I1213
I-14
tp1095
a(I-1521
I1297
I-51
tp1096
a(I-193
I1340
I-95
tp1097
a(I-1722
I733
I-23
tp1098
as(I-1694
I233
I-51
tp1099
(lp1100
(I-1287
I426
I-52
tp1101
as(I147
I-31
I-99
tp1102
(lp1103
(I200
I1175
I-95
tp1104
asg43
(lp1105
g41
as(I-365
I-1554
I0
tp1106
(lp1107
(I-331
I-1550
I0
tp1108
as(I-489
I-748
I-67
tp1109
(lp1110
(I-425
I-338
I-67
tp1111
as(I-1909
I163
I-53
tp1112
(lp1113
(I-1794
I435
I-53
tp1114
asg909
(lp1115
g907
as(I-30
I-2104
I0
tp1116
(lp1117
(I-888
I-1684
I0
tp1118
as(I88
I3
I-99
tp1119
(lp1120
(I225
I977
I-95
tp1121
as(I-1266
I502
I-53
tp1122
(lp1123
(I-1995
I39
I-48
tp1124
as(I-768
I-1457
I0
tp1125
(lp1126
(I-317
I-1580
I0
tp1127
as(I-16
I-2014
I4
tp1128
(lp1129
(I-2
I-2060
I4
tp1130
asg389
(lp1131
(I539
I-1708
I-60
tp1132
as(I-94
I-1544
I0
tp1133
(lp1134
(I484
I-605
I-68
tp1135
asg544
(lp1136
g542
as(I-427
I1312
I-105
tp1137
(lp1138
(I78
I1265
I-95
tp1139
as(I871
I672
I-85
tp1140
(lp1141
(I165
I1023
I-95
tp1142
asg791
(lp1143
g789
as(I-596
I58
I-67
tp1144
(lp1145
(I-535
I122
I-67
tp1146
as(I-1531
I930
I-51
tp1147
(lp1148
(I-1812
I455
I-52
tp1149
as(I-1507
I635
I-51
tp1150
(lp1151
(I-1611
I1025
I-51
tp1152
as(I-997
I-1884
I4
tp1153
(lp1154
(I-1737
I-1084
I2
tp1155
as(I-1546
I-834
I40
tp1156
(lp1157
(I-1771
I-592
I80
tp1158
as(I-1803
I413
I-53
tp1159
(lp1160
(I-2029
I441
I-48
tp1161
as(I-546
I-697
I-67
tp1162
(lp1163
(I-628
I-479
I-67
tp1164
asg209
(lp1165
(I940
I-959
I-79
tp1166
as(I-704
I-1742
I0
tp1167
(lp1168
(I386
I-1888
I52
tp1169
a(I355
I-1847
I57
tp1170
a(I-795
I-1563
I0
tp1171
as(I-1066
I1371
I-102
tp1172
(lp1173
(I787
I1042
I-89
tp1174
as(I-1314
I434
I-52
tp1175
(lp1176
(I-667
I601
I-68
tp1177
as(I613
I1424
I-101
tp1178
(lp1179
(I60
I1200
I-95
tp1180
as(I-737
I1385
I-100
tp1181
(lp1182
(I-1596
I1304
I-15
tp1183
asg264
(lp1184
g262
as(I-1343
I-1864
I4
tp1185
(lp1186
(I-1526
I-1063
I2
tp1187
a(I-1324
I-1456
I2
tp1188
as(I-220
I-1484
I4
tp1189
(lp1190
(I452
I-1349
I-68
tp1191
as(I-1566
I1323
I-51
tp1192
(lp1193
(I-220
I1339
I-95
tp1194
as(I521
I642
I-100
tp1195
(lp1196
(I183
I1376
I-95
tp1197
as(I728
I-502
I-75
tp1198
(lp1199
(I220
I-915
I-71
tp1200
asg587
(lp1201
g585
asg906
(lp1202
g904
as(I-1500
I1430
I-51
tp1203
(lp1204
(I-1521
I1326
I-51
tp1205
as(I-323
I-1826
I0
tp1206
(lp1207
(I-384
I-2058
I0
tp1208
as(I-545
I679
I-74
tp1209
(lp1210
(I-1444
I491
I-54
tp1211
as(I-129
I-1130
I-73
tp1212
(lp1213
(I-139
I-1053
I-74
tp1214
a(I-53
I-832
I-74
tp1215
asg1177
(lp1216
g1175
a(I-526
I-785
I-67
tp1217
as(I814
I-58
I-85
tp1218
(lp1219
(I681
I-1564
I-60
tp1220
as(I196
I1323
I-95
tp1221
(lp1222
(I-1349
I1513
I-81
tp1223
as(I-1307
I384
I-51
tp1224
(lp1225
(I-2023
I-261
I50
tp1226
asg78
(lp1227
(I-1022
I562
I-64
tp1228
as(I-554
I-450
I-67
tp1229
(lp1230
(I-270
I-889
I-67
tp1231
as(I475
I-1272
I-68
tp1232
(lp1233
(I367
I-1119
I-70
tp1234
as(I-1544
I1064
I-51
tp1235
(lp1236
(I-1705
I570
I-51
tp1237
as(I380
I-1668
I41
tp1238
(lp1239
(I-1544
I-802
I42
tp1240
asg955
(lp1241
g953
as(I752
I-1355
I-72
tp1242
(lp1243
(I397
I-232
I-73
tp1244
as(I-278
I-808
I-67
tp1245
(lp1246
(I125
I-1386
I-71
tp1247
asg304
(lp1248
g302
as(I-1292
I-411
I78
tp1249
(lp1250
(I-1404
I-484
I78
tp1251
as(I-490
I1012
I-95
tp1252
(lp1253
(I-1091
I1990
I-98
tp1254
asg877
(lp1255
g875
as(I1056
I1132
I-87
tp1256
(lp1257
(I1115
I1004
I-87
tp1258
as(I202
I83
I-91
tp1259
(lp1260
(I-153
I-105
I-67
tp1261
as(I-995
I-1393
I2
tp1262
(lp1263
(I-518
I-528
I-67
tp1264
as(I-2009
I440
I-48
tp1265
(lp1266
(I-1712
I-379
I80
tp1267
as(I-146
I-2015
I0
tp1268
(lp1269
(I-233
I-1484
I4
tp1270
as(I-811
I-1305
I-17
tp1271
(lp1272
(I-818
I-1070
I-63
tp1273
asg551
(lp1274
g549
as(I648
I760
I-99
tp1275
(lp1276
(I711
I-1310
I-71
tp1277
a(I724
I974
I-99
tp1278
as(I-1390
I1484
I-54
tp1279
(lp1280
(I-1994
I152
I-53
tp1281
as(I-1743
I508
I-53
tp1282
(lp1283
(I-1520
I660
I-51
tp1284
asg434
(lp1285
g432
as(I224
I-1610
I-49
tp1286
(lp1287
(I214
I-2031
I8
tp1288
as(I-1820
I376
I-53
tp1289
(lp1290
(I-505
I668
I-78
tp1291
as(I-1547
I-1020
I7
tp1292
(lp1293
(I-1344
I-1860
I4
tp1294
as(I-563
I1562
I-104
tp1295
(lp1296
(I-283
I1570
I-95
tp1297
as(I-53
I-703
I-67
tp1298
(lp1299
(I760
I-443
I-80
tp1300
as(I169
I-1400
I-69
tp1301
(lp1302
(I-462
I-1556
I0
tp1303
as(I-1225
I425
I-52
tp1304
(lp1305
(I-525
I805
I-95
tp1306
as(I-1702
I540
I-51
tp1307
(lp1308
(I-2022
I433
I-49
tp1309
as(I379
I-1881
I52
tp1310
(lp1311
(I-612
I-2263
I4
tp1312
a(I-513
I-2232
I0
tp1313
a(I-160
I-2262
I1
tp1314
as(I-1240
I-1682
I4
tp1315
(lp1316
(I-1809
I-611
I80
tp1317
as(I596
I-1620
I-60
tp1318
(lp1319
(I860
I-760
I-71
tp1320
asg271
(lp1321
(I1255
I-1126
I-72
tp1322
as(I-78
I-1560
I0
tp1323
(lp1324
(I638
I102
I-88
tp1325
as(I94
I1221
I-95
tp1326
(lp1327
(I-70
I1277
I-95
tp1328
as(I378
I-1945
I41
tp1329
(lp1330
(I844
I-1293
I-69
tp1331
as(I56
I-648
I-67
tp1332
(lp1333
(I-4
I-673
I-67
tp1334
as(I-1298
I-1465
I2
tp1335
(lp1336
(I-1251
I-1728
I4
tp1337
as(I-64
I-1451
I8
tp1338
(lp1339
(I-1227
I-1728
I4
tp1340
as(I-809
I-125
I-67
tp1341
(lp1342
(I-715
I619
I-69
tp1343
asg373
(lp1344
g371
as(I-1107
I1740
I-98
tp1345
(lp1346
(I-517
I1322
I-104
tp1347
as(I-819
I536
I-73
tp1348
(lp1349
(I-634
I789
I-95
tp1350
asg852
(lp1351
g850
as(I60
I-2015
I7
tp1352
(lp1353
(I118
I-1997
I8
tp1354
as(I-744
I-982
I-63
tp1355
(lp1356
(I-1182
I-1466
I3
tp1357
as(I574
I1353
I-102
tp1358
(lp1359
(I770
I-26
I-90
tp1360
asg1111
(lp1361
g1109
as(I264
I-1898
I11
tp1362
(lp1363
(I-605
I-2260
I3
tp1364
as(I258
I-914
I-70
tp1365
(lp1366
(I747
I967
I-98
tp1367
as(I-1651
I408
I-52
tp1368
(lp1369
(I-752
I573
I-71
tp1370
as(I794
I-1509
I-60
tp1371
(lp1372
(I628
I-1400
I-71
tp1373
as(I-806
I-157
I-67
tp1374
(lp1375
(I-130
I-1048
I-73
tp1376
asg16
(lp1377
g14
asg1211
(lp1378
g1209
as(I513
I652
I-100
tp1379
(lp1380
(I647
I499
I-100
tp1381
asg376
(lp1382
g374
as(I-1847
I364
I-53
tp1383
(lp1384
(I-1514
I712
I-51
tp1385
as(I247
I1172
I-74
tp1386
(lp1387
(I664
I1332
I-101
tp1388
a(I-315
I1335
I-95
tp1389
as(I-758
I-1416
I-2
tp1390
(lp1391
(I-535
I-1993
I0
tp1392
as(I1240
I-1161
I-73
tp1393
(lp1394
(I555
I-1608
I-51
tp1395
asg485
(lp1396
g483
as(I237
I-1907
I8
tp1397
(lp1398
(I113
I-1800
I9
tp1399
as(I-1570
I1291
I-51
tp1400
(lp1401
(I-1179
I1728
I-98
tp1402
as(I627
I-259
I-75
tp1403
(lp1404
(I567
I636
I-99
tp1405
as(I-331
I-842
I-67
tp1406
(lp1407
(I303
I-1192
I-68
tp1408
as(I-1882
I395
I-53
tp1409
(lp1410
(I-1522
I659
I-51
tp1411
as(I-1344
I-1860
I4
tp1412
(lp1413
(I-119
I-1721
I0
tp1414
ag1292
a(I-545
I-1592
I0
tp1415
a(I264
I-1968
I60
tp1416
ag974
a(I271
I-1968
I60
tp1417
a(I-185
I-1772
I0
tp1418
a(I389
I-1861
I52
tp1419
a(I-1109
I-1805
I4
tp1420
a(I-192
I-1803
I0
tp1421
asg194
(lp1422
g192
as(I610
I-1324
I-72
tp1423
(lp1424
(I1240
I-1164
I-73
tp1425
asg787
(lp1426
g785
as(I-283
I1343
I-95
tp1427
(lp1428
(I217
I1170
I-95
tp1429
as(I-533
I774
I-81
tp1430
(lp1431
(I-1984
I-127
I-28
tp1432
asg1104
(lp1433
g1102
as(I-39
I-1829
I2
tp1434
(lp1435
(I-69
I-1886
I0
tp1436
asg65
(lp1437
g63
as(I-1507
I600
I-51
tp1438
(lp1439
(I-1743
I494
I-52
tp1440
as(I116
I-2038
I8
tp1441
(lp1442
(I-485
I-2177
I0
tp1443
asg629
(lp1444
g627
asg533
(lp1445
(I-79
I-1393
I-73
tp1446
as(I-1488
I1387
I-51
tp1447
(lp1448
(I-1544
I1184
I-51
tp1449
a(I-1580
I931
I-51
tp1450
a(I-1500
I1267
I-51
tp1451
as(I485
I1295
I-102
tp1452
(lp1453
(I656
I1448
I-101
tp1454
ag322
as(I-1661
I885
I-51
tp1455
(lp1456
(I-1741
I663
I-51
tp1457
as(I1219
I-1201
I-72
tp1458
(lp1459
(I587
I-1595
I-60
tp1460
asg147
(lp1461
g145
as(I844
I-1293
I-69
tp1462
(lp1463
(I826
I-455
I-71
tp1464
ag1329
as(I-1704
I535
I-51
tp1465
(lp1466
(I-1483
I1423
I-51
tp1467
a(I-1496
I848
I-51
tp1468
as(I-571
I922
I-95
tp1469
(lp1470
(I-482
I1142
I-95
tp1471
as(I108
I-2134
I9
tp1472
(lp1473
(I-1087
I-1845
I4
tp1474
as(I-1635
I-1037
I8
tp1475
(lp1476
(I-175
I-2024
I0
tp1477
asg243
(lp1478
g241
as(I-338
I-591
I-67
tp1479
(lp1480
(I-317
I-777
I-65
tp1481
asg1013
(lp1482
g1011
as(I256
I1163
I-106
tp1483
(lp1484
(I-1463
I1465
I-51
tp1485
a(I-608
I1467
I-101
tp1486
as(I-1089
I-1543
I32
tp1487
(lp1488
(I-1680
I-241
I20
tp1489
a(I-235
I-2091
I0
tp1490
asg40
(lp1491
g38
as(I-279
I-2100
I0
tp1492
(lp1493
(I97
I-1165
I-30
tp1494
as(I-730
I-393
I-67
tp1495
(lp1496
(I-587
I-509
I-67
tp1497
as(I320
I-1899
I52
tp1498
(lp1499
(I-768
I-1445
I0
tp1500
asg479
(lp1501
g477
as(I82
I-676
I-67
tp1502
(lp1503
(I-1052
I-984
I2
tp1504
as(I55
I-49
I-99
tp1505
(lp1506
(I1082
I-780
I-71
tp1507
as(I-768
I486
I-71
tp1508
(lp1509
(I-687
I656
I-70
tp1510
as(I-618
I874
I-95
tp1511
(lp1512
(I-431
I1345
I-104
tp1513
as(I317
I-1907
I52
tp1514
(lp1515
(I-598
I-2257
I1
tp1516
as(I160
I-2076
I8
tp1517
(lp1518
(I194
I-1877
I8
tp1519
asg458
(lp1520
g456
as(I-290
I1251
I-95
tp1521
(lp1522
(I-1070
I1423
I-101
tp1523
as(I178
I1185
I-95
tp1524
(lp1525
(I-666
I1515
I-103
tp1526
as(I693
I328
I-93
tp1527
(lp1528
(I779
I-595
I-78
tp1529
a(I681
I95
I-87
tp1530
as(I-579
I1116
I-95
tp1531
(lp1532
(I1104
I1144
I-87
tp1533
as(I-1346
I-1859
I4
tp1534
(lp1535
(I73
I-2024
I8
tp1536
asg1124
(lp1537
g1122
as(I265
I1415
I-104
tp1538
(lp1539
(I337
I903
I-101
tp1540
as(I-265
I1417
I-95
tp1541
(lp1542
(I-395
I1715
I-95
tp1543
asg1309
(lp1544
g1307
as(I615
I-1528
I-60
tp1545
(lp1546
(I467
I-1766
I-60
tp1547
asg330
(lp1548
g328
as(I-655
I589
I-67
tp1549
(lp1550
(I-679
I520
I-71
tp1551
asg903
(lp1552
g901
asg529
(lp1553
g527
as(I-134
I1341
I-95
tp1554
(lp1555
(I787
I1042
I-89
tp1556
as(I-1931
I300
I-54
tp1557
(lp1558
(I-1489
I1481
I-51
tp1559
as(I1121
I1059
I-87
tp1560
(lp1561
(I1117
I1024
I-87
tp1562
as(I-1082
I-1572
I4
tp1563
(lp1564
(I-1346
I-1862
I4
tp1565
as(I-1072
I-1416
I2
tp1566
(lp1567
(I211
I-1755
I5
tp1568
asg52
(lp1569
g50
as(I257
I17
I-79
tp1570
(lp1571
(I-115
I-105
I-67
tp1572
as(I2
I-1420
I-3
tp1573
(lp1574
(I896
I-1013
I-75
tp1575
as(I-887
I-1463
I0
tp1576
(lp1577
(I-873
I-1210
I-42
tp1578
as(I253
I792
I-104
tp1579
(lp1580
(I185
I1088
I-95
tp1581
as(I867
I-795
I-71
tp1582
(lp1583
(I627
I-1594
I-60
tp1584
as(I-1764
I400
I-53
tp1585
(lp1586
(I-1589
I1340
I-51
tp1587
as(I150
I-1388
I-70
tp1588
(lp1589
(I-203
I-1346
I-64
tp1590
as(I577
I-1519
I-60
tp1591
(lp1592
(I1121
I-1112
I-70
tp1593
asg895
(lp1594
g893
asg346
(lp1595
g344
as(I-93
I-1301
I-73
tp1596
(lp1597
(I182
I-1495
I-70
tp1598
as(I670
I-1441
I-65
tp1599
(lp1600
(I403
I-1216
I-70
tp1601
as(I361
I-2064
I8
tp1602
(lp1603
(I211
I-1803
I8
tp1604
as(I-776
I-1160
I-54
tp1605
(lp1606
(I-808
I-1014
I-63
tp1607
as(I-1529
I-1321
I2
tp1608
(lp1609
(I-1473
I-565
I80
tp1610
asg1170
(lp1611
(I-704
I-1742
I0
tp1612
as(I-800
I-45
I-67
tp1613
(lp1614
(I-803
I-171
I-67
tp1615
asg1188
(lp1616
(I-1343
I-1864
I4
tp1617
as(I-1614
I149
I-47
tp1618
(lp1619
(I-1458
I407
I-53
tp1620
asg224
(lp1621
g222
as(I199
I-1536
I-72
tp1622
(lp1623
(I193
I-1993
I8
tp1624
as(I-119
I-1471
I10
tp1625
(lp1626
(I-149
I-1710
I0
tp1627
asg803
(lp1628
g801
as(I854
I1282
I-87
tp1629
(lp1630
(I-33
I1283
I-95
tp1631
as(I-78
I-2000
I-1
tp1632
(lp1633
(I335
I-1949
I35
tp1634
as(I230
I37
I-79
tp1635
(lp1636
(I-481
I24
I-67
tp1637
as(I1017
I-1040
I-74
tp1638
(lp1639
(I265
I-1200
I-68
tp1640
a(I260
I-1204
I-68
tp1641
as(I646
I-1175
I-71
tp1642
(lp1643
(I800
I-1399
I-72
tp1644
as(I-1628
I463
I-53
tp1645
(lp1646
(I-457
I695
I-80
tp1647
a(I-1683
I434
I-53
tp1648
asg208
(lp1649
(I940
I-959
I-79
tp1650
as(I-494
I661
I-79
tp1651
(lp1652
(I-644
I1583
I-104
tp1653
asg1288
(lp1654
g1286
asg567
(lp1655
g565
as(I199
I-1584
I-65
tp1656
(lp1657
(I238
I-1908
I8
tp1658
as(I-508
I824
I-95
tp1659
(lp1660
(I-841
I600
I-70
tp1661
as(I450
I729
I-103
tp1662
(lp1663
(I869
I673
I-85
tp1664
as(I429
I-288
I-72
tp1665
(lp1666
(I753
I-945
I-74
tp1667
as(I-1499
I1517
I-51
tp1668
(lp1669
(I-1522
I659
I-51
tp1670
as(I-559
I1393
I-103
tp1671
(lp1672
(I739
I1037
I-99
tp1673
a(I-509
I1031
I-95
tp1674
a(I-560
I940
I-95
tp1675
asg1003
(lp1676
g1001
as(I-566
I1270
I-95
tp1677
(lp1678
(I-819
I1698
I-103
tp1679
as(I-1904
I-1552
I14
tp1680
(lp1681
(I-1559
I-571
I80
tp1682
as(I141
I509
I-95
tp1683
(lp1684
(I198
I1100
I-95
tp1685
asg504
(lp1686
g502
a(I540
I296
I-89
tp1687
asg656
(lp1688
g654
as(I396
I974
I-102
tp1689
(lp1690
(I741
I-342
I-81
tp1691
as(I64
I-627
I-67
tp1692
(lp1693
(I378
I-100
I-79
tp1694
asg1343
(lp1695
g1341
as(I245
I-1372
I-68
tp1696
(lp1697
(I186
I-1852
I8
tp1698
as(I-122
I-2260
I0
tp1699
(lp1700
(I-116
I-2158
I-1
tp1701
a(I-26
I-2070
I2
tp1702
as(I-614
I638
I-71
tp1703
(lp1704
(I-1277
I552
I-55
tp1705
as(I-1596
I1045
I-51
tp1706
(lp1707
(I-1597
I310
I-52
tp1708
as(I-1700
I-768
I80
tp1709
(lp1710
(I-1988
I-399
I50
tp1711
as(I-1334
I-1859
I4
tp1712
(lp1713
(I98
I-2018
I8
tp1714
a(I-387
I-1772
I0
tp1715
as(I-1141
I-1693
I4
tp1716
(lp1717
(I-1905
I-489
I72
tp1718
as(I826
I-1100
I-71
tp1719
(lp1720
(I685
I-1541
I-60
tp1721
as(I-518
I750
I-75
tp1722
(lp1723
(I-612
I561
I-69
tp1724
as(I-63
I9
I-67
tp1725
(lp1726
(I-620
I169
I-67
tp1727
as(I22
I1232
I-95
tp1728
(lp1729
(I21
I1199
I-95
tp1730
as(I-22
I-1981
I5
tp1731
(lp1732
(I379
I-1921
I48
tp1733
as(I468
I-1765
I-60
tp1734
(lp1735
(I606
I-1595
I-60
tp1736
as(I279
I-1958
I30
tp1737
(lp1738
(I175
I-1495
I-71
tp1739
as(I-514
I1165
I-95
tp1740
(lp1741
(I-529
I781
I-83
tp1742
as(I-566
I-2288
I1
tp1743
(lp1744
(I364
I-1821
I75
tp1745
as(I160
I312
I-99
tp1746
(lp1747
(I16
I1243
I-95
tp1748
as(I367
I-1893
I52
tp1749
(lp1750
(I-725
I-2024
I0
tp1751
asg80
(lp1752
(I-1022
I562
I-64
tp1753
as(I253
I-2055
I8
tp1754
(lp1755
(I350
I-1922
I48
tp1756
asg1050
(lp1757
g1048
as(I-1699
I476
I-53
tp1758
(lp1759
(I-590
I630
I-73
tp1760
as(I-509
I1665
I-102
tp1761
(lp1762
(I-866
I1368
I-101
tp1763
as(I-215
I1341
I-95
tp1764
(lp1765
(I88
I1254
I-95
tp1766
as(I-614
I726
I-75
tp1767
(lp1768
(I-523
I1135
I-95
tp1769
as(I-637
I-2010
I0
tp1770
(lp1771
(I-1006
I-1739
I4
tp1772
asg1739
(lp1773
g1737
asg1155
(lp1774
g1153
asg120
(lp1775
g118
as(I-1541
I1189
I-51
tp1776
(lp1777
(I-1776
I963
I-51
tp1778
as(I716
I-1350
I-72
tp1779
(lp1780
(I613
I-529
I-68
tp1781
as(I-582
I-155
I-5
tp1782
(lp1783
(I-696
I-934
I-67
tp1784
as(I1055
I1135
I-87
tp1785
(lp1786
(I1117
I998
I-87
tp1787
as(I-544
I1353
I-66
tp1788
(lp1789
(I1104
I1144
I-87
tp1790
asg461
(lp1791
g459
asg1357
(lp1792
g1355
as(I-1831
I-813
I70
tp1793
(lp1794
(I-684
I-885
I-67
tp1795
as(I231
I-2004
I8
tp1796
(lp1797
(I-388
I-1974
I0
tp1798
as(I1263
I-1124
I-73
tp1799
(lp1800
(I363
I-1727
I75
tp1801
asg207
(lp1802
g205
as(I-1705
I631
I-41
tp1803
(lp1804
(I-1665
I-673
I80
tp1805
as(I-1976
I216
I-54
tp1806
(lp1807
(I-1934
I299
I-54
tp1808
a(I-1683
I188
I-50
tp1809
as(I72
I-629
I-67
tp1810
(lp1811
(I253
I950
I-103
tp1812
asg1766
(lp1813
g1764
as(I-1705
I304
I-43
tp1814
(lp1815
(I-2084
I-45
I-44
tp1816
as(I-556
I1553
I-104
tp1817
(lp1818
(I-180
I1266
I-95
tp1819
as(I-989
I1412
I-101
tp1820
(lp1821
(I-974
I1438
I-101
tp1822
asg1568
(lp1823
g1566
as(I-1135
I1395
I-102
tp1824
(lp1825
(I183
I1364
I-95
tp1826
as(I-1179
I460
I-54
tp1827
(lp1828
(I-916
I563
I-67
tp1829
asg1581
(lp1830
g1579
asg1093
(lp1831
g1091
as(I-644
I787
I-95
tp1832
(lp1833
(I-497
I913
I-95
tp1834
as(I-1650
I511
I-54
tp1835
(lp1836
(I-1522
I659
I-51
tp1837
as(I205
I-1536
I-72
tp1838
(lp1839
(I-113
I-999
I-73
tp1840
asg367
(lp1841
g365
as(I-254
I1370
I-95
tp1842
(lp1843
(I-251
I1679
I-95
tp1844
asg1191
(lp1845
g1189
as(I-144
I1263
I-77
tp1846
(lp1847
(I-857
I1391
I-101
tp1848
as(I-607
I-2261
I3
tp1849
(lp1850
(I394
I-1836
I64
tp1851
as(I-596
I-226
I107
tp1852
(lp1853
(I-1023
I-336
I78
tp1854
as(I-849
I-1371
I-7
tp1855
(lp1856
(I-394
I-1817
I0
tp1857
as(I324
I-1890
I52
tp1858
(lp1859
(I-573
I-2290
I1
tp1860
asg1451
(lp1861
(I-1488
I1387
I-51
tp1862
asg554
(lp1863
g552
as(I-1926
I139
I-53
tp1864
(lp1865
(I-1750
I433
I-53
tp1866
as(I-486
I1267
I-95
tp1867
(lp1868
(I-402
I1142
I-95
tp1869
as(I-1118
I-1392
I2
tp1870
(lp1871
(I-754
I-1015
I-63
tp1872
as(I-379
I130
I-67
tp1873
(lp1874
(I580
I-368
I-69
tp1875
as(I371
I-1809
I75
tp1876
(lp1877
(I437
I-1792
I75
tp1878
as(I-79
I-1162
I-72
tp1879
(lp1880
(I274
I-880
I-70
tp1881
as(I-391
I-2065
I0
tp1882
(lp1883
(I182
I-2124
I8
tp1884
asg334
(lp1885
(I280
I-715
I-69
tp1886
as(I-1987
I-405
I93
tp1887
(lp1888
(I-1963
I-417
I50
tp1889
as(I-33
I-1996
I3
tp1890
(lp1891
(I482
I-2082
I8
tp1892
as(I687
I-1332
I-71
tp1893
(lp1894
(I-270
I-1471
I9
tp1895
as(I242
I1105
I-104
tp1896
(lp1897
(I-1088
I1984
I-98
tp1898
as(I234
I-893
I-71
tp1899
(lp1900
(I1018
I528
I-79
tp1901
as(I-1562
I-839
I44
tp1902
(lp1903
(I-1269
I-1596
I4
tp1904
as(I249
I1150
I-106
tp1905
(lp1906
(I-509
I1468
I-103
tp1907
as(I-178
I-833
I-67
tp1908
(lp1909
(I-105
I-1121
I-72
tp1910
as(I-1860
I248
I-43
tp1911
(lp1912
(I-1671
I-645
I80
tp1913
as(I298
I-1260
I-68
tp1914
(lp1915
(I794
I-1507
I-60
tp1916
as(I449
I-1702
I-60
tp1917
(lp1918
(I810
I-980
I80
tp1919
as(I1117
I1024
I-87
tp1920
(lp1921
(I848
I1065
I-87
tp1922
ag1560
as(I668
I-1433
I-65
tp1923
(lp1924
(I-201
I-806
I-67
tp1925
a(I-41
I-1408
I-73
tp1926
as(I-1529
I1399
I-51
tp1927
(lp1928
(I-1634
I946
I-51
tp1929
as(I-299
I-160
I-67
tp1930
(lp1931
(I-674
I-600
I-67
tp1932
as(I-108
I-1489
I4
tp1933
(lp1934
(I644
I-1117
I-63
tp1935
as(I223
I-1770
I7
tp1936
(lp1937
(I165
I-1984
I8
tp1938
as(I277
I1215
I-106
tp1939
(lp1940
(I355
I1189
I-105
tp1941
asg1094
(lp1942
(I-1087
I1984
I-98
tp1943
as(I-1604
I935
I-51
tp1944
(lp1945
(I-1542
I1188
I-51
tp1946
as(I-1328
I1551
I-93
tp1947
(lp1948
(I-1654
I1088
I-51
tp1949
as(I635
I-1631
I-60
tp1950
(lp1951
(I836
I-620
I-71
tp1952
as(I-140
I1368
I-95
tp1953
(lp1954
(I-1531
I1352
I-51
tp1955
as(I125
I-167
I-99
tp1956
(lp1957
(I44
I5
I-94
tp1958
asg59
(lp1959
g57
as(I-807
I-1209
I-43
tp1960
(lp1961
(I-604
I-2258
I2
tp1962
as(I209
I-644
I-67
tp1963
(lp1964
(I654
I-593
I-66
tp1965
as(I-1666
I-440
I80
tp1966
(lp1967
(I-1944
I191
I-53
tp1968
asg171
(lp1969
g169
as(I-825
I477
I-70
tp1970
(lp1971
(I-853
I24
I-67
tp1972
as(I-1510
I-1329
I2
tp1973
(lp1974
(I-1856
I-524
I80
tp1975
as(I388
I-1792
I75
tp1976
(lp1977
(I187
I704
I-95
tp1978
as(I-416
I1331
I-103
tp1979
(lp1980
(I274
I1240
I-105
tp1981
as(I-467
I1079
I-95
tp1982
(lp1983
(I-709
I564
I-69
tp1984
as(I458
I677
I-103
tp1985
(lp1986
(I99
I1324
I-95
tp1987
as(I-1114
I1982
I-95
tp1988
(lp1989
(I-1281
I1638
I-95
tp1990
as(I-1610
I444
I-53
tp1991
(lp1992
(I-1663
I1543
I-51
tp1993
as(I867
I-473
I-71
tp1994
(lp1995
(I483
I637
I-102
tp1996
as(I-507
I948
I-95
tp1997
(lp1998
(I-764
I439
I-67
tp1999
asg616
(lp2000
g614
as(I-931
I-165
I-67
tp2001
(lp2002
(I-630
I46
I-67
tp2003
as(I-1663
I-212
I35
tp2004
(lp2005
(I-1860
I658
I-15
tp2006
as(I-1532
I1070
I-22
tp2007
(lp2008
(I-1114
I1978
I-93
tp2009
asg1158
(lp2010
g1156
as(I-861
I-1525
I0
tp2011
(lp2012
(I43
I-1992
I7
tp2013
as(I-1341
I-1547
I4
tp2014
(lp2015
(I-794
I-1571
I0
tp2016
as(I541
I-700
I-65
tp2017
(lp2018
(I655
I-246
I-78
tp2019
asg702
(lp2020
g700
as(I-579
I992
I-95
tp2021
(lp2022
(I-464
I1490
I-102
tp2023
as(I-741
I-1274
I-21
tp2024
(lp2025
(I-808
I-1297
I-18
tp2026
asg1593
(lp2027
g1591
as(I-729
I-1766
I0
tp2028
(lp2029
(I-709
I-1890
I0
tp2030
as(I-58
I-723
I-67
tp2031
(lp2032
(I269
I-430
I-79
tp2033
as(I268
I1429
I-104
tp2034
(lp2035
(I163
I453
I-95
tp2036
as(I337
I-1210
I-69
tp2037
(lp2038
(I728
I-1713
I-54
tp2039
as(I662
I-1629
I-60
tp2040
(lp2041
(I860
I-760
I-71
tp2042
as(I-1454
I1041
I-51
tp2043
(lp2044
(I-1698
I-306
I80
tp2045
as(I645
I-1596
I-60
tp2046
(lp2047
(I1035
I-653
I-71
tp2048
as(I-1906
I179
I-53
tp2049
(lp2050
(I-1433
I1395
I-51
tp2051
a(I-1496
I848
I-51
tp2052
as(I950
I-1193
I-68
tp2053
(lp2054
(I443
I-1758
I-60
tp2055
a(I130
I-1172
I-71
tp2056
as(I-1637
I-738
I80
tp2057
(lp2058
(I-1327
I-1546
I4
tp2059
as(I-1713
I498
I-53
tp2060
(lp2061
(I-1545
I1211
I-51
tp2062
as(I-424
I-214
I-67
tp2063
(lp2064
(I41
I-31
I-90
tp2065
asg1297
(lp2066
g1295
as(I44
I62
I-94
tp2067
(lp2068
(I-442
I-240
I-67
tp2069
as(I-1473
I513
I-55
tp2070
(lp2071
(I-1890
I353
I-54
tp2072
as(I450
I-1789
I-60
tp2073
(lp2074
(I641
I-1541
I-60
tp2075
a(I115
I-1405
I-69
tp2076
as(I544
I665
I-99
tp2077
(lp2078
(I179
I1179
I-95
tp2079
asg343
(lp2080
g341
asg1267
(lp2081
g1265
as(I-546
I660
I-74
tp2082
(lp2083
(I-849
I348
I-67
tp2084
as(I-1591
I1373
I-51
tp2085
(lp2086
(I35
I1247
I-95
tp2087
as(I-568
I1499
I-102
tp2088
(lp2089
(I-864
I1800
I-103
tp2090
as(I-341
I-2042
I0
tp2091
(lp2092
(I-1001
I-1846
I4
tp2093
as(I431
I726
I-103
tp2094
(lp2095
(I868
I675
I-85
tp2096
asg1844
(lp2097
g1842
as(I201
I1146
I-95
tp2098
(lp2099
(I-469
I1410
I-103
tp2100
as(I-128
I-1848
I0
tp2101
(lp2102
(I-312
I-2056
I0
tp2103
asg498
(lp2104
g496
asg1949
(lp2105
g1947
asg1987
(lp2106
g1985
as(I-1496
I451
I-53
tp2107
(lp2108
(I-1235
I481
I-53
tp2109
asg95
(lp2110
g93
a(I-486
I1229
I-95
tp2111
a(I-1683
I990
I-51
tp2112
as(I1265
I-1124
I-73
tp2113
(lp2114
(I432
I-1359
I-68
tp2115
as(I551
I-1759
I-60
tp2116
(lp2117
(I384
I-1789
I75
tp2118
a(I259
I-1604
I-52
tp2119
asg612
(lp2120
g610
as(I-1492
I1305
I-51
tp2121
(lp2122
(I675
I1314
I-99
tp2123
asg517
(lp2124
g515
asg305
(lp2125
(I-882
I-130
I-67
tp2126
as(I-641
I-1653
I0
tp2127
(lp2128
(I-779
I-1257
I-28
tp2129
as(I352
I-1037
I-47
tp2130
(lp2131
(I579
I595
I-99
tp2132
as(I68
I1288
I-95
tp2133
(lp2134
(I-901
I1377
I-65
tp2135
as(I-544
I1352
I-104
tp2136
(lp2137
(I-186
I1304
I-95
tp2138
as(I-2009
I-177
I4
tp2139
(lp2140
(I-1729
I-669
I80
tp2141
as(I-1485
I1443
I-51
tp2142
(lp2143
(I-1756
I528
I-51
tp2144
as(I-453
I1379
I-104
tp2145
(lp2146
(I-1464
I1489
I-51
tp2147
as(I393
I-1771
I75
tp2148
(lp2149
(I473
I-1760
I-60
tp2150
asg937
(lp2151
g935
as(I-420
I-2155
I0
tp2152
(lp2153
(I-1071
I-1743
I4
tp2154
as(I394
I-1768
I75
tp2155
(lp2156
(I388
I-1797
I75
tp2157
as(I729
I933
I-100
tp2158
(lp2159
(I573
I200
I-88
tp2160
asg413
(lp2161
g411
asg2042
(lp2162
g2040
a(I626
I-1648
I-60
tp2163
ag1318
asg1418
(lp2164
(I-1344
I-1860
I4
tp2165
as(I648
I1309
I-102
tp2166
(lp2167
(I-28
I1252
I-95
tp2168
ag831
as(I-827
I1748
I-103
tp2169
(lp2170
(I19
I1210
I-95
tp2171
as(I-883
I-17
I-67
tp2172
(lp2173
(I-850
I-90
I-67
tp2174
asg1667
(lp2175
g1665
as(I148
I-213
I-99
tp2176
(lp2177
(I922
I491
I-79
tp2178
asg752
(lp2179
g750
as(I98
I1208
I-95
tp2180
(lp2181
(I-945
I1787
I-101
tp2182
asg212
(lp2183
g210
asg1464
(lp2184
g1462
as(I-439
I536
I-75
tp2185
(lp2186
(I-981
I527
I-65
tp2187
as(I-96
I-1904
I0
tp2188
(lp2189
(I-593
I-1482
I5
tp2190
asg1798
(lp2191
g1796
as(I353
I-1805
I75
tp2192
(lp2193
(I1240
I-1164
I-73
tp2194
as(I318
I-1954
I33
tp2195
(lp2196
(I-602
I-2258
I2
tp2197
as(I-465
I745
I-77
tp2198
(lp2199
(I-431
I1345
I-104
tp2200
asg1955
(lp2201
g1953
asg1261
(lp2202
g1259
asg2093
(lp2203
g2091
as(I-318
I1232
I-92
tp2204
(lp2205
(I-356
I1322
I-95
tp2206
as(I-1447
I1146
I-51
tp2207
(lp2208
(I-1150
I1941
I-89
tp2209
as(I-532
I1334
I-104
tp2210
(lp2211
(I-554
I1041
I-95
tp2212
asg1388
(lp2213
g1386
as(I514
I1199
I-101
tp2214
(lp2215
(I393
I910
I-101
tp2216
as(I-1549
I1245
I-51
tp2217
(lp2218
(I-1695
I506
I-54
tp2219
as(I-533
I1108
I-95
tp2220
(lp2221
(I-960
I2010
I-99
tp2222
as(I73
I163
I-99
tp2223
(lp2224
(I93
I266
I-99
tp2225
as(I581
I-1710
I-60
tp2226
(lp2227
(I688
I-1460
I-65
tp2228
asg800
(lp2229
g798
as(I81
I-2116
I9
tp2230
(lp2231
(I68
I-2126
I8
tp2232
as(I574
I-337
I-70
tp2233
(lp2234
(I164
I-1076
I-69
tp2235
as(I742
I948
I-99
tp2236
(lp2237
(I579
I314
I-90
tp2238
as(I-854
I-66
I-67
tp2239
(lp2240
(I-314
I-820
I-67
tp2241
as(I-491
I-2162
I0
tp2242
(lp2243
(I-1351
I-1477
I2
tp2244
as(I-914
I-1803
I0
tp2245
(lp2246
(I-337
I-2095
I0
tp2247
as(I-839
I-166
I-67
tp2248
(lp2249
(I-533
I-747
I-67
tp2250
asg1647
(lp2251
g1645
asg2168
(lp2252
g2166
as(I156
I1237
I-95
tp2253
(lp2254
(I-241
I1264
I-95
tp2255
asg1467
(lp2256
g1465
asg1130
(lp2257
g1128
as(I138
I1260
I-95
tp2258
(lp2259
(I-1512
I1321
I-51
tp2260
as(I-750
I-1366
I-8
tp2261
(lp2262
(I-464
I-2227
I1
tp2263
as(I82
I62
I-99
tp2264
(lp2265
(I214
I707
I-95
tp2266
as(I-724
I-274
I-67
tp2267
(lp2268
(I-810
I315
I-67
tp2269
as(I-1439
I1515
I-51
tp2270
(lp2271
(I-1519
I1237
I-51
tp2272
as(I-1664
I430
I-52
tp2273
(lp2274
(I-1516
I1399
I-51
tp2275
as(I679
I-1583
I-60
tp2276
(lp2277
(I710
I-1152
I-71
tp2278
asg228
(lp2279
g226
as(I-1122
I524
I-59
tp2280
(lp2281
(I-1650
I422
I-53
tp2282
as(I-1790
I584
I-51
tp2283
(lp2284
(I-1993
I296
I-55
tp2285
asg849
(lp2286
g847
as(I704
I932
I-100
tp2287
(lp2288
(I1105
I1144
I-87
tp2289
as(I177
I-1439
I-68
tp2290
(lp2291
(I391
I-1220
I-69
tp2292
as(I231
I-1653
I-23
tp2293
(lp2294
(I153
I-1885
I8
tp2295
asg1742
(lp2296
g1740
as(I-1738
I426
I-53
tp2297
(lp2298
(I-1914
I331
I-54
tp2299
as(I-510
I-341
I-67
tp2300
(lp2301
(I-4
I-36
I-67
tp2302
asg1000
(lp2303
g998
ag2261
as(I-1614
I-941
I26
tp2304
(lp2305
(I-1543
I-1269
I2
tp2306
as(I-86
I-2142
I-2
tp2307
(lp2308
(I647
I-1625
I-60
tp2309
as(I-768
I-1776
I0
tp2310
(lp2311
(I-111
I-1828
I0
tp2312
as(I-1936
I190
I-53
tp2313
(lp2314
(I-2029
I441
I-48
tp2315
asg915
(lp2316
g913
a(I-549
I1372
I-104
tp2317
as(I-464
I1035
I-95
tp2318
(lp2319
(I-1012
I1968
I-100
tp2320
as(I622
I502
I-100
tp2321
(lp2322
(I302
I-869
I-69
tp2323
as(I932
I-1310
I-66
tp2324
(lp2325
(I551
I-1566
I-48
tp2326
as(I1099
I-1195
I-69
tp2327
(lp2328
(I518
I-1616
I-26
tp2329
asg340
(lp2330
g338
asg370
(lp2331
g368
as(I749
I-1066
I-71
tp2332
(lp2333
(I193
I-1435
I-68
tp2334
asg1981
(lp2335
g1979
as(I-273
I1280
I-95
tp2336
(lp2337
(I681
I1284
I-101
tp2338
a(I-28
I1286
I-95
tp2339
asg777
(lp2340
g775
as(I-502
I588
I-77
tp2341
(lp2342
(I-844
I595
I-70
tp2343
as(I396
I-1792
I75
tp2344
(lp2345
(I-109
I-2099
I-1
tp2346
asg2235
(lp2347
g2233
as(I-311
I-212
I-67
tp2348
(lp2349
(I-544
I-401
I-67
tp2350
asg1183
(lp2351
g1181
as(I344
I-1876
I52
tp2352
(lp2353
(I379
I-1687
I53
tp2354
asg1932
(lp2355
g1930
asg1965
(lp2356
g1963
as(I726
I126
I-70
tp2357
(lp2358
(I760
I657
I-96
tp2359
as(I-676
I-1544
I0
tp2360
(lp2361
(I370
I-1837
I63
tp2362
asg1072
(lp2363
g1070
as(I-1538
I-1435
I2
tp2364
(lp2365
(I-846
I-1206
I-44
tp2366
as(I-305
I1399
I-95
tp2367
(lp2368
(I207
I1155
I-95
tp2369
a(I-510
I-414
I-67
tp2370
asg1006
(lp2371
g1004
as(I260
I-1995
I8
tp2372
(lp2373
(I448
I-2114
I8
tp2374
as(I-139
I-957
I-75
tp2375
(lp2376
(I209
I-1582
I-65
tp2377
asg1610
(lp2378
g1608
as(I-1708
I526
I-51
tp2379
(lp2380
(I-1478
I914
I-51
tp2381
as(I-1664
I-709
I80
tp2382
(lp2383
(I-1816
I-1174
I3
tp2384
asg946
(lp2385
g944
as(I417
I800
I-100
tp2386
(lp2387
(I185
I1142
I-95
tp2388
as(I426
I736
I-102
tp2389
(lp2390
(I111
I1274
I-95
tp2391
as(I-1226
I473
I-53
tp2392
(lp2393
(I-1412
I363
I-52
tp2394
asg1938
(lp2395
g1936
a(I199
I-1821
I8
tp2396
as(I627
I-1560
I-60
tp2397
(lp2398
(I840
I-1304
I-69
tp2399
a(I800
I-630
I-71
tp2400
asg2219
(lp2401
g2217
as(I231
I-1585
I-64
tp2402
(lp2403
(I532
I-1694
I-60
tp2404
as(I-1574
I418
I-53
tp2405
(lp2406
(I-1524
I667
I-51
tp2407
as(I705
I-1462
I-65
tp2408
(lp2409
(I325
I-1831
I68
tp2410
asg746
(lp2411
g744
as(I-630
I-536
I-67
tp2412
(lp2413
(I-246
I-894
I-67
tp2414
asg295
(lp2415
g293
as(I-103
I-1951
I0
tp2416
(lp2417
(I-83
I-1985
I-1
tp2418
as(I-491
I684
I-78
tp2419
(lp2420
(I-498
I1180
I-95
tp2421
asg1450
(lp2422
(I-1488
I1387
I-51
tp2423
as(I-1995
I-458
I50
tp2424
(lp2425
(I-2005
I-422
I50
tp2426
asg979
(lp2427
g977
as(I-1600
I468
I-53
tp2428
(lp2429
(I-742
I501
I-72
tp2430
as(I-1532
I-961
I13
tp2431
(lp2432
(I-1193
I-1420
I2
tp2433
as(I-1715
I511
I-54
tp2434
(lp2435
(I-2008
I434
I-49
tp2436
asg1381
(lp2437
g1379
as(I-776
I546
I-73
tp2438
(lp2439
(I-1505
I495
I-54
tp2440
as(I649
I-842
I-64
tp2441
(lp2442
(I742
I-1576
I-60
tp2443
asg2350
(lp2444
g2348
asg1910
(lp2445
g1908
as(I-581
I-937
I-67
tp2446
(lp2447
(I-1728
I-800
I72
tp2448
as(I102
I-2121
I9
tp2449
(lp2450
(I-986
I-1395
I2
tp2451
asg1313
(lp2452
(I379
I-1881
I52
tp2453
as(I368
I-1843
I59
tp2454
(lp2455
(I-948
I-1737
I0
tp2456
as(I-1494
I-899
I8
tp2457
(lp2458
(I-1542
I-845
I36
tp2459
as(I-555
I-855
I-67
tp2460
(lp2461
(I-942
I-1080
I-63
tp2462
asg1648
(lp2463
(I-1628
I463
I-53
tp2464
as(I438
I-1650
I29
tp2465
(lp2466
(I424
I-1831
I63
tp2467
as(I-1430
I-863
I3
tp2468
(lp2469
(I-1513
I-1140
I2
tp2470
a(I-511
I-1583
I0
tp2471
as(I175
I1428
I-95
tp2472
(lp2473
(I633
I532
I-100
tp2474
a(I627
I520
I-99
tp2475
asg1834
(lp2476
g1832
as(I441
I-1673
I-60
tp2477
(lp2478
(I884
I-332
I-30
tp2479
a(I235
I-1952
I8
tp2480
a(I814
I-1341
I-71
tp2481
asg19
(lp2482
g17
as(I-823
I1882
I-95
tp2483
(lp2484
(I472
I-1761
I-60
tp2485
as(I-1287
I487
I-24
tp2486
(lp2487
(I-1449
I334
I-52
tp2488
as(I-759
I438
I-67
tp2489
(lp2490
(I-884
I546
I-67
tp2491
asg784
(lp2492
g782
asg1664
(lp2493
g1662
as(I-21
I1239
I-95
tp2494
(lp2495
(I1104
I1144
I-87
tp2496
asg1303
(lp2497
g1301
a(I-179
I-1997
I0
tp2498
asg2232
(lp2499
g2230
asg1604
(lp2500
g1602
asg892
(lp2501
g890
as(I-482
I1142
I-95
tp2502
(lp2503
(I-562
I794
I-91
tp2504
ag1469
asg1044
(lp2505
g1042
as(I-203
I-1347
I-64
tp2506
(lp2507
(I671
I-1377
I-73
tp2508
as(I-1453
I-1223
I2
tp2509
(lp2510
(I-1672
I-1023
I11
tp2511
as(I-966
I-1792
I4
tp2512
(lp2513
(I-704
I-1564
I0
tp2514
as(I-1699
I786
I-51
tp2515
(lp2516
(I-1735
I503
I-53
tp2517
as(I120
I1197
I-95
tp2518
(lp2519
(I711
I1262
I-101
tp2520
as(I-1176
I1394
I-102
tp2521
(lp2522
(I751
I1292
I-100
tp2523
as(I918
I-1010
I-76
tp2524
(lp2525
(I211
I-1431
I-68
tp2526
as(I813
I-1113
I-71
tp2527
(lp2528
(I-65
I-1417
I-19
tp2529
as(I-785
I-1636
I0
tp2530
(lp2531
(I215
I-2208
I11
tp2532
as(I-555
I-2269
I0
tp2533
(lp2534
(I24
I-2030
I6
tp2535
a(I-1073
I-1417
I2
tp2536
asg2129
(lp2537
g2127
asg2103
(lp2538
g2101
as(I-1504
I1500
I-51
tp2539
(lp2540
(I-1409
I1479
I-51
tp2541
as(I712
I1343
I-101
tp2542
(lp2543
(I683
I-261
I-80
tp2544
asg34
(lp2545
g32
as(I165
I1163
I-95
tp2546
(lp2547
(I-730
I1586
I-103
tp2548
asg622
(lp2549
g620
as(I-1366
I-1860
I4
tp2550
(lp2551
(I389
I-1831
I68
tp2552
as(I-1729
I506
I-54
tp2553
(lp2554
(I-2008
I434
I-49
tp2555
as(I-829
I-159
I-67
tp2556
(lp2557
(I-804
I298
I-67
tp2558
as(I-40
I-2046
I1
tp2559
(lp2560
(I448
I-2114
I8
tp2561
as(I-96
I-1976
I0
tp2562
(lp2563
(I-519
I-1787
I0
tp2564
as(I398
I-1883
I104
tp2565
(lp2566
(I-574
I-2162
I0
tp2567
asg2132
(lp2568
g2130
asg188
(lp2569
g186
as(I397
I-1706
I67
tp2570
(lp2571
(I317
I-1863
I52
tp2572
ag121
as(I724
I1288
I-101
tp2573
(lp2574
(I-1448
I1382
I-51
tp2575
a(I-447
I1311
I-104
tp2576
as(I-642
I-2238
I8
tp2577
(lp2578
(I-499
I-2154
I0
tp2579
asg1096
(lp2580
(I-1087
I1984
I-98
tp2581
asg470
(lp2582
g468
as(I785
I-1352
I-72
tp2583
(lp2584
(I727
I-1125
I-71
tp2585
asg252
(lp2586
g250
as(I755
I136
I-56
tp2587
(lp2588
(I861
I254
I-85
tp2589
asg686
(lp2590
g684
as(I-770
I304
I-67
tp2591
(lp2592
(I-782
I-40
I-67
tp2593
as(I-698
I1476
I-101
tp2594
(lp2595
(I-576
I1429
I-102
tp2596
as(I548
I629
I-99
tp2597
(lp2598
(I541
I219
I-88
tp2599
as(I1110
I1097
I-87
tp2600
(lp2601
(I-246
I1400
I-63
tp2602
as(I747
I-147
I-86
tp2603
(lp2604
(I-866
I-109
I76
tp2605
as(I-1706
I627
I-51
tp2606
(lp2607
(I-1477
I1400
I-51
tp2608
asg1996
(lp2609
g1994
as(I-1456
I1522
I-51
tp2610
(lp2611
(I-2018
I-162
I-4
tp2612
asg267
(lp2613
g265
as(I957
I-706
I-71
tp2614
(lp2615
(I-113
I-999
I-73
tp2616
as(I193
I-1826
I8
tp2617
(lp2618
(I-139
I-2211
I0
tp2619
as(I-193
I-1993
I0
tp2620
(lp2621
(I-106
I-1671
I0
tp2622
asg2222
(lp2623
g2220
asg1347
(lp2624
g1345
as(I-519
I923
I-95
tp2625
(lp2626
(I-505
I1133
I-95
tp2627
asg2212
(lp2628
g2210
asg1978
(lp2629
g1976
asg401
(lp2630
g399
as(I480
I-1662
I-1
tp2631
(lp2632
(I395
I-1775
I75
tp2633
as(I321
I-1862
I52
tp2634
(lp2635
(I-166
I-2100
I0
tp2636
as(I-1597
I-1007
I12
tp2637
(lp2638
(I-1482
I-1328
I2
tp2639
as(I-1700
I-731
I80
tp2640
(lp2641
(I-1804
I605
I-51
tp2642
asg2033
(lp2643
g2031
as(I-110
I1333
I-95
tp2644
(lp2645
(I-901
I1350
I-101
tp2646
asg743
(lp2647
g741
asg1929
(lp2648
g1927
as(I-526
I1244
I-95
tp2649
(lp2650
(I-160
I1347
I-95
tp2651
as(I412
I1418
I-102
tp2652
(lp2653
(I1113
I1186
I-87
tp2654
as(I-1505
I1373
I-51
tp2655
(lp2656
(I-968
I1263
I-95
tp2657
asg2062
(lp2658
g2060
as(I1028
I-1223
I-68
tp2659
(lp2660
(I575
I-1581
I-60
tp2661
asg1317
(lp2662
g1315
asg71
(lp2663
g69
as(I376
I-1854
I52
tp2664
(lp2665
(I-517
I-2044
I0
tp2666
asg473
(lp2667
g471
as(I351
I1183
I-106
tp2668
(lp2669
(I871
I665
I-85
tp2670
as(I-569
I-1814
I0
tp2671
(lp2672
(I-779
I-1401
I-3
tp2673
as(I-803
I-175
I-67
tp2674
(lp2675
(I-763
I456
I-68
tp2676
as(I-857
I565
I-69
tp2677
(lp2678
(I-747
I252
I-67
tp2679
asg526
(lp2680
g524
as(I46
I1240
I-95
tp2681
(lp2682
(I806
I188
I-85
tp2683
as(I157
I-2019
I8
tp2684
(lp2685
(I-535
I-2246
I0
tp2686
asg635
(lp2687
g633
asg2317
(lp2688
(I872
I671
I-85
tp2689
as(I301
I-886
I-68
tp2690
(lp2691
(I622
I504
I-100
tp2692
as(I-1622
I810
I-51
tp2693
(lp2694
(I-1947
I236
I-53
tp2695
as(I-563
I143
I-67
tp2696
(lp2697
(I-520
I-8
I-67
tp2698
asg31
(lp2699
g29
as(I-566
I-328
I-67
tp2700
(lp2701
(I-633
I-531
I-67
tp2702
asg175
(lp2703
(I-319
I-865
I-67
tp2704
as(I-1281
I461
I-30
tp2705
(lp2706
(I-993
I555
I-64
tp2707
as(I-743
I565
I-71
tp2708
(lp2709
(I-1721
I501
I-53
tp2710
as(I759
I-1557
I-60
tp2711
(lp2712
(I674
I184
I-89
tp2713
asg1601
(lp2714
g1599
a(I155
I-1511
I-71
tp2715
as(I729
I-700
I-71
tp2716
(lp2717
(I728
I983
I-99
tp2718
as(I-762
I1688
I-103
tp2719
(lp2720
(I-577
I1210
I-95
tp2721
asg1500
(lp2722
g1498
as(I-1678
I773
I-51
tp2723
(lp2724
(I-1650
I840
I-51
tp2725
asg632
(lp2726
g630
as(I-1456
I1415
I-51
tp2727
(lp2728
(I-1166
I1850
I-89
tp2729
asg2608
(lp2730
g2606
as(I-227
I-699
I-67
tp2731
(lp2732
(I194
I-1010
I-70
tp2733
asg931
(lp2734
g929
asg221
(lp2735
g219
asg1504
(lp2736
g1502
as(I262
I-1685
I-4
tp2737
(lp2738
(I-1
I-2096
I2
tp2739
as(I-1039
I-1747
I4
tp2740
(lp2741
(I-1033
I-1659
I4
tp2742
asg2171
(lp2743
g2169
asg821
(lp2744
g819
as(I404
I-1768
I75
tp2745
(lp2746
(I553
I-1624
I-50
tp2747
asg2366
(lp2748
g2364
as(I251
I-1529
I-72
tp2749
(lp2750
(I-83
I-1389
I-73
tp2751
as(I-99
I-1566
I0
tp2752
(lp2753
(I1035
I-653
I-71
tp2754
as(I-1097
I1992
I-98
tp2755
(lp2756
(I-307
I1508
I-95
tp2757
asg1490
(lp2758
(I-1089
I-1543
I32
tp2759
as(I-1694
I1032
I-51
tp2760
(lp2761
(I-1082
I1991
I-98
tp2762
as(I-1565
I1083
I-51
tp2763
(lp2764
(I-1903
I428
I-53
tp2765
as(I-505
I1133
I-95
tp2766
(lp2767
(I-822
I313
I-67
tp2768
ag2625
asg1795
(lp2769
g1793
asg1370
(lp2770
g1368
as(I137
I-205
I-99
tp2771
(lp2772
(I-758
I40
I-67
tp2773
a(I622
I371
I-93
tp2774
asg2471
(lp2775
(I-1430
I-863
I3
tp2776
asg1727
(lp2777
g1725
as(I216
I-1887
I8
tp2778
(lp2779
(I223
I-1678
I-9
tp2780
as(I-1596
I1429
I-51
tp2781
(lp2782
(I-1422
I1030
I-51
tp2783
asg1312
(lp2784
g1310
as(I-1592
I888
I-51
tp2785
(lp2786
(I-1735
I503
I-53
tp2787
as(I360
I-1848
I56
tp2788
(lp2789
(I87
I-2077
I8
tp2790
as(I-722
I-414
I-67
tp2791
(lp2792
(I-521
I-601
I-59
tp2793
as(I194
I-661
I-67
tp2794
(lp2795
(I79
I218
I-99
tp2796
asg1892
(lp2797
g1890
asg960
(lp2798
g958
asg897
(lp2799
(I-1913
I-1094
I7
tp2800
as(I-1244
I-1662
I4
tp2801
(lp2802
(I-849
I-1909
I0
tp2803
a(I-605
I-410
I-67
tp2804
as(I-504
I1288
I-95
tp2805
(lp2806
(I-449
I1362
I-103
tp2807
asg2269
(lp2808
g2267
as(I-435
I596
I-79
tp2809
(lp2810
(I-515
I1318
I-104
tp2811
as(I-77
I-1675
I0
tp2812
(lp2813
(I897
I1144
I-87
tp2814
as(I201
I722
I-95
tp2815
(lp2816
(I94
I-479
I-99
tp2817
as(I85
I-2059
I9
tp2818
(lp2819
(I-835
I-1945
I0
tp2820
as(I-757
I-882
I-67
tp2821
(lp2822
(I-905
I-1284
I-20
tp2823
as(I-514
I738
I-75
tp2824
(lp2825
(I-491
I1317
I-102
tp2826
as(I-1862
I349
I-54
tp2827
(lp2828
(I-1451
I1369
I-51
tp2829
asg1392
(lp2830
g1390
asg2197
(lp2831
g2195
as(I133
I-1935
I8
tp2832
(lp2833
(I151
I-1443
I-69
tp2834
as(I-803
I-1453
I0
tp2835
(lp2836
(I-898
I-1834
I0
tp2837
as(I373
I-1787
I75
tp2838
(lp2839
(I511
I-1719
I-60
tp2840
a(I649
I-1521
I-60
tp2841
as(I63
I72
I-99
tp2842
(lp2843
(I343
I1230
I-105
tp2844
ag160
as(I-533
I-673
I-67
tp2845
(lp2846
(I-681
I-571
I-67
tp2847
asg2462
(lp2848
g2460
as(I394
I-1140
I-69
tp2849
(lp2850
(I265
I-836
I-70
tp2851
asg2646
(lp2852
g2644
as(I46
I-2103
I6
tp2853
(lp2854
(I365
I-1824
I72
tp2855
as(I-512
I-2200
I0
tp2856
(lp2857
(I223
I-1963
I8
tp2858
as(I-1493
I1328
I-51
tp2859
(lp2860
(I-1082
I1991
I-98
tp2861
as(I642
I-1354
I-72
tp2862
(lp2863
(I648
I-1519
I-60
tp2864
as(I-611
I748
I-74
tp2865
(lp2866
(I-455
I1314
I-104
tp2867
as(I263
I-602
I-72
tp2868
(lp2869
(I209
I-1582
I-65
tp2870
as(I581
I-1758
I-60
tp2871
(lp2872
(I466
I-1792
I-60
tp2873
as(I-794
I619
I-73
tp2874
(lp2875
(I-1186
I508
I-55
tp2876
as(I-1712
I428
I-53
tp2877
(lp2878
(I-814
I551
I-74
tp2879
as(I714
I-1697
I-54
tp2880
(lp2881
(I616
I-1673
I-60
tp2882
as(I-134
I-1571
I15
tp2883
(lp2884
(I450
I-2116
I8
tp2885
as(I-853
I-21
I-67
tp2886
(lp2887
(I-763
I654
I-72
tp2888
a(I-748
I593
I-71
tp2889
as(I-742
I-2033
I0
tp2890
(lp2891
(I89
I-1980
I8
tp2892
as(I190
I-1728
I3
tp2893
(lp2894
(I318
I-1838
I52
tp2895
as(I-600
I1355
I-102
tp2896
(lp2897
(I-845
I1825
I-95
tp2898
as(I-486
I1078
I-95
tp2899
(lp2900
(I-439
I463
I-72
tp2901
asg1809
(lp2902
(I-1976
I216
I-54
tp2903
as(I-796
I-1564
I0
tp2904
(lp2905
(I-880
I-1316
I-15
tp2906
asg599
(lp2907
g597
as(I-1028
I583
I-66
tp2908
(lp2909
(I-1960
I199
I-53
tp2910
as(I-320
I1484
I-95
tp2911
(lp2912
(I-282
I1374
I-95
tp2913
as(I348
I-1737
I74
tp2914
(lp2915
(I398
I-1912
I52
tp2916
as(I-276
I-65
I-67
tp2917
(lp2918
(I-806
I-106
I76
tp2919
as(I37
I-2034
I7
tp2920
(lp2921
(I357
I-2062
I8
tp2922
asg2879
(lp2923
g2877
as(I-1704
I914
I-51
tp2924
(lp2925
(I-1514
I1252
I-51
tp2926
asg425
(lp2927
g423
as(I279
I-544
I-78
tp2928
(lp2929
(I253
I-786
I-71
tp2930
as(I155
I-1478
I-70
tp2931
(lp2932
(I-126
I-1044
I-73
tp2933
as(I589
I-1565
I-60
tp2934
(lp2935
(I1032
I-1038
I-73
tp2936
asg204
(lp2937
g202
asg1941
(lp2938
g1939
as(I-459
I505
I-72
tp2939
(lp2940
(I-695
I596
I-68
tp2941
as(I-872
I1384
I-101
tp2942
(lp2943
(I-1702
I1568
I-51
tp2944
as(I939
I1259
I-87
tp2945
(lp2946
(I-144
I1288
I-95
tp2947
as(I-474
I-389
I-67
tp2948
(lp2949
(I-826
I117
I-67
tp2950
as(I-575
I1231
I-95
tp2951
(lp2952
(I-501
I1044
I-95
tp2953
as(I617
I-1587
I-60
tp2954
(lp2955
(I1029
I-613
I-61
tp2956
as(I-1733
I530
I-51
tp2957
(lp2958
(I-2020
I422
I-51
tp2959
asg2056
(lp2960
(I950
I-1193
I-68
tp2961
as(I-322
I1287
I-95
tp2962
(lp2963
(I-302
I1243
I-94
tp2964
asg896
(lp2965
(I-1913
I-1094
I7
tp2966
as(I758
I-1171
I-71
tp2967
(lp2968
(I754
I1288
I-100
tp2969
as(I1241
I-1160
I-73
tp2970
(lp2971
(I487
I-1616
I-6
tp2972
asg2959
(lp2973
g2957
as(I-1480
I1522
I-51
tp2974
(lp2975
(I-1146
I568
I-62
tp2976
asg1875
(lp2977
g1873
asg1673
(lp2978
g1671
as(I-1491
I1099
I-51
tp2979
(lp2980
(I-2012
I98
I-53
tp2981
as(I-1713
I-765
I80
tp2982
(lp2983
(I-2036
I-293
I50
tp2984
as(I-531
I1173
I-95
tp2985
(lp2986
(I-800
I286
I-67
tp2987
asg1756
(lp2988
g1754
asg2163
(lp2989
(I860
I-760
I-71
tp2990
asg2278
(lp2991
g2276
as(I-496
I1645
I-102
tp2992
(lp2993
(I-34
I1257
I-95
tp2994
as(I502
I-747
I-69
tp2995
(lp2996
(I410
I-838
I-63
tp2997
asg2950
(lp2998
g2948
asg440
(lp2999
g438
as(I362
I-1707
I67
tp3000
(lp3001
(I448
I-2114
I8
tp3002
as(I-35
I-1504
I1
tp3003
(lp3004
(I-1186
I-1408
I2
tp3005
as(I111
I1307
I-95
tp3006
(lp3007
(I269
I1424
I-104
tp3008
as(I424
I-2116
I8
tp3009
(lp3010
(I369
I-1711
I69
tp3011
as(I-1420
I-1347
I2
tp3012
(lp3013
(I-737
I-1574
I0
tp3014
asg495
(lp3015
g493
as(I1110
I-1117
I-70
tp3016
(lp3017
(I535
I-1577
I-37
tp3018
a(I567
I-1604
I-60
tp3019
asg1801
(lp3020
g1799
as(I-431
I1345
I-104
tp3021
(lp3022
(I-1526
I1297
I-38
tp3023
a(I-473
I959
I-95
tp3024
ag2198
ag1511
as(I-609
I-2262
I3
tp3025
(lp3026
(I98
I-1938
I44
tp3027
as(I472
I-1745
I-60
tp3028
(lp3029
(I406
I-1770
I75
tp3030
as(I-1712
I517
I-52
tp3031
(lp3032
(I-2011
I432
I-49
tp3033
as(I262
I-1897
I11
tp3034
(lp3035
(I-597
I-2256
I1
tp3036
asg2997
(lp3037
g2995
as(I372
I-1863
I52
tp3038
(lp3039
(I316
I-1991
I15
tp3040
as(I-824
I1867
I-95
tp3041
(lp3042
(I472
I-1761
I-60
tp3043
asg680
(lp3044
g678
as(I-518
I931
I-95
tp3045
(lp3046
(I-478
I1303
I-97
tp3047
asg255
(lp3048
g253
as(I603
I1339
I-102
tp3049
(lp3050
(I224
I1106
I-95
tp3051
asg1223
(lp3052
g1221
asg283
(lp3053
g281
as(I92
I251
I-99
tp3054
(lp3055
(I227
I1121
I-81
tp3056
asg1682
(lp3057
g1680
asg2285
(lp3058
g2283
as(I-348
I-105
I-67
tp3059
(lp3060
(I-597
I-605
I-67
tp3061
as(I-1031
I556
I-64
tp3062
(lp3063
(I-931
I558
I-67
tp3064
as(I98
I-559
I-72
tp3065
(lp3066
(I-161
I-1483
I5
tp3067
as(I577
I-1547
I-60
tp3068
(lp3069
(I1212
I-1205
I-72
tp3070
as(I-240
I-874
I-67
tp3071
(lp3072
(I-678
I-805
I-44
tp3073
as(I764
I1239
I-98
tp3074
(lp3075
(I-58
I1280
I-95
tp3076
asg1926
(lp3077
(I668
I-1433
I-65
tp3078
asg692
(lp3079
g690
asg534
(lp3080
(I-79
I-1393
I-73
tp3081
asg114
(lp3082
g112
as(I-14
I-1808
I3
tp3083
(lp3084
(I-494
I-2252
I0
tp3085
asg677
(lp3086
g675
asg10
(lp3087
g8
ag1824
as(I-526
I-432
I-67
tp3088
(lp3089
(I-541
I-463
I-67
tp3090
asg2323
(lp3091
g2321
asg855
(lp3092
g853
as(I-539
I590
I-75
tp3093
(lp3094
(I-1522
I616
I-51
tp3095
asg943
(lp3096
g941
as(I-701
I1553
I-103
tp3097
(lp3098
(I-577
I1191
I-95
tp3099
as(I-1676
I602
I-51
tp3100
(lp3101
(I-1753
I71
I-48
tp3102
asg575
(lp3103
g573
as(I-807
I548
I-74
tp3104
(lp3105
(I-2021
I433
I-49
tp3106
asg2679
(lp3107
g2677
asg2346
(lp3108
g2344
asg1748
(lp3109
g1746
as(I387
I-1697
I60
tp3110
(lp3111
(I329
I-1919
I50
tp3112
as(I-1079
I-1723
I4
tp3113
(lp3114
(I-843
I-1869
I0
tp3115
as(I-89
I26
I-67
tp3116
(lp3117
(I615
I0
I-82
tp3118
asg1661
(lp3119
g1659
asg2260
(lp3120
g2258
as(I-794
I1682
I-102
tp3121
(lp3122
(I-267
I1259
I-95
tp3123
as(I-1628
I654
I-51
tp3124
(lp3125
(I-1461
I1476
I-51
tp3126
asg1169
(lp3127
g1167
as(I-97
I-1571
I0
tp3128
(lp3129
(I55
I-1415
I-72
tp3130
as(I-1521
I860
I-51
tp3131
(lp3132
(I-1399
I1378
I-52
tp3133
as(I-1085
I1986
I-98
tp3134
(lp3135
(I-1697
I1023
I-51
tp3136
asg240
(lp3137
g238
as(I-565
I-2180
I0
tp3138
(lp3139
(I-492
I-2057
I0
tp3140
as(I564
I-1627
I-59
tp3141
(lp3142
(I282
I-1456
I107
tp3143
as(I-831
I315
I-67
tp3144
(lp3145
(I-827
I352
I-67
tp3146
as(I-834
I-1086
I-63
tp3147
(lp3148
(I-645
I-846
I-67
tp3149
asg767
(lp3150
g765
asg2837
(lp3151
g2835
as(I-2
I51
I-67
tp3152
(lp3153
(I252
I-950
I-70
tp3154
as(I-1117
I-1462
I4
tp3155
(lp3156
(I-1811
I-702
I80
tp3157
asg1187
(lp3158
g1185
as(I-194
I-860
I-67
tp3159
(lp3160
(I-1691
I-857
I50
tp3161
as(I-594
I576
I-70
tp3162
(lp3163
(I-501
I882
I-95
tp3164
ag718
asg1405
(lp3165
g1403
asg2844
(lp3166
g2842
asg3056
(lp3167
g3054
asg2141
(lp3168
g2139
as(I-149
I1311
I-95
tp3169
(lp3170
(I-22
I1187
I-95
tp3171
as(I-1566
I1251
I-51
tp3172
(lp3173
(I-1583
I39
I-46
tp3174
as(I-149
I-1372
I-73
tp3175
(lp3176
(I-203
I-1346
I-64
tp3177
asg2783
(lp3178
g2781
as(I681
I-1455
I-65
tp3179
(lp3180
(I555
I-1299
I-68
tp3181
asg1443
(lp3182
g1441
as(I-1979
I468
I-50
tp3183
(lp3184
(I-1585
I1142
I-51
tp3185
a(I-1721
I544
I-51
tp3186
asg1694
(lp3187
g1692
asg1197
(lp3188
g1195
a(I476
I710
I-102
tp3189
as(I269
I-1165
I-68
tp3190
(lp3191
(I472
I-1761
I-60
tp3192
asg1432
(lp3193
g1430
a(I-1554
I1396
I-51
tp3194
asg773
(lp3195
g771
asg1237
(lp3196
g1235
asg1736
(lp3197
g1734
as(I-1623
I1256
I-51
tp3198
(lp3199
(I-1306
I1519
I-96
tp3200
as(I-1394
I1505
I-52
tp3201
(lp3202
(I810
I-980
I80
tp3203
asg1020
(lp3204
g1018
as(I282
I-1433
I107
tp3205
(lp3206
(I-562
I-1477
I7
tp3207
asg733
(lp3208
g731
as(I-1992
I147
I-53
tp3209
(lp3210
(I-1372
I514
I-52
tp3211
asg1984
(lp3212
g1982
as(I-268
I-915
I-67
tp3213
(lp3214
(I-498
I-365
I-67
tp3215
as(I-824
I271
I-67
tp3216
(lp3217
(I-537
I975
I-95
tp3218
as(I113
I-1870
I-14
tp3219
(lp3220
(I-486
I1624
I-103
tp3221
asg198
(lp3222
(I-1347
I-1859
I4
tp3223
as(I-1893
I-455
I75
tp3224
(lp3225
(I-1277
I-1431
I2
tp3226
as(I-120
I-989
I-73
tp3227
(lp3228
(I-146
I-1680
I0
tp3229
as(I577
I-1559
I-60
tp3230
(lp3231
(I1230
I-1168
I-72
tp3232
asg1551
(lp3233
g1549
asg2096
(lp3234
g2094
a(I-1569
I1370
I-51
tp3235
asg74
(lp3236
g72
asg2596
(lp3237
g2594
asg761
(lp3238
g759
as(I-534
I1566
I-104
tp3239
(lp3240
(I810
I-980
I80
tp3241
asg476
(lp3242
g474
as(I-1557
I924
I-51
tp3243
(lp3244
(I-1812
I364
I-53
tp3245
a(I-1812
I364
I-53
tp3246
as(I-214
I-1513
I1
tp3247
(lp3248
(I-791
I-1891
I0
tp3249
as(I-1393
I-462
I78
tp3250
(lp3251
(I-2000
I-391
I50
tp3252
as(I-203
I-853
I-67
tp3253
(lp3254
(I697
I-1507
I-60
tp3255
asg2861
(lp3256
g2859
ag2760
asg538
(lp3257
g536
asg1389
(lp3258
(I247
I1172
I-74
tp3259
asg1385
(lp3260
g1383
as(I365
I-1863
I52
tp3261
(lp3262
(I-1335
I-1861
I4
tp3263
as(I-594
I1519
I-102
tp3264
(lp3265
(I-633
I748
I-75
tp3266
as(I-1806
I-1002
I15
tp3267
(lp3268
(I-1511
I-1358
I2
tp3269
as(I-149
I-2070
I0
tp3270
(lp3271
(I-1046
I-1774
I4
tp3272
as(I-438
I-1531
I1
tp3273
(lp3274
(I-595
I-1483
I5
tp3275
asg770
(lp3276
g768
as(I-481
I975
I-95
tp3277
(lp3278
(I-993
I1938
I-100
tp3279
asg966
(lp3280
g964
a(I374
I-1814
I75
tp3281
as(I672
I596
I-99
tp3282
(lp3283
(I726
I1316
I-101
tp3284
as(I278
I597
I-103
tp3285
(lp3286
(I63
I80
I-99
tp3287
as(I-742
I1680
I-103
tp3288
(lp3289
(I-527
I1040
I-95
tp3290
asg1244
(lp3291
g1242
asg3185
(lp3292
g3183
as(I-589
I-1486
I4
tp3293
(lp3294
(I-148
I-1732
I0
tp3295
a(I-720
I-1545
I0
tp3296
a(I-355
I-1552
I0
tp3297
asg2194
(lp3298
g2192
ag1423
asg1029
(lp3299
g1027
as(I531
I557
I-100
tp3300
(lp3301
(I661
I-2
I-84
tp3302
asg3157
(lp3303
g3155
as(I-353
I1340
I-95
tp3304
(lp3305
(I-253
I1730
I-95
tp3306
as(I-634
I-2246
I7
tp3307
(lp3308
(I363
I-1825
I71
tp3309
asg1523
(lp3310
g1521
as(I-598
I-2257
I1
tp3311
(lp3312
(I418
I-1930
I89
tp3313
ag1514
a(I-582
I-1546
I0
tp3314
a(I353
I-1829
I69
tp3315
as(I545
I-1606
I-45
tp3316
(lp3317
(I1196
I-1176
I-71
tp3318
as(I-752
I1664
I-103
tp3319
(lp3320
(I-254
I1274
I-95
tp3321
as(I68
I-1388
I-73
tp3322
(lp3323
(I231
I-1537
I-72
tp3324
asg311
(lp3325
g309
as(I396
I-2000
I11
tp3326
(lp3327
(I356
I-1776
I75
tp3328
asg1620
(lp3329
g1618
as(I377
I-1787
I75
tp3330
(lp3331
(I245
I-2037
I8
tp3332
asg638
(lp3333
g636
as(I-1771
I263
I-43
tp3334
(lp3335
(I-748
I593
I-71
tp3336
as(I680
I-1540
I-60
tp3337
(lp3338
(I307
I-1923
I48
tp3339
as(I706
I-1729
I-51
tp3340
(lp3341
(I282
I-1456
I107
tp3342
asg1066
(lp3343
g1064
as(I664
I-1471
I-60
tp3344
(lp3345
(I224
I-1127
I-69
tp3346
asg225
(lp3347
(I-149
I-1422
I-73
tp3348
as(I-431
I-350
I-67
tp3349
(lp3350
(I-556
I-693
I-67
tp3351
asg3328
(lp3352
g3326
asg1866
(lp3353
g1864
asg2026
(lp3354
g2024
asg1772
(lp3355
g1770
as(I814
I-1335
I-71
tp3356
(lp3357
(I572
I-1341
I-71
tp3358
as(I-1150
I-1688
I4
tp3359
(lp3360
(I-1689
I-677
I80
tp3361
as(I282
I-1455
I107
tp3362
(lp3363
(I318
I-1838
I52
tp3364
a(I318
I-1838
I52
tp3365
as(I-521
I-596
I-67
tp3366
(lp3367
(I2
I-692
I-67
tp3368
as(I550
I-1559
I-48
tp3369
(lp3370
(I768
I-1454
I-65
tp3371
as(I-1294
I-1563
I4
tp3372
(lp3373
(I367
I-1840
I61
tp3374
asg1705
(lp3375
g1703
a(I-970
I546
I-65
tp3376
asg2567
(lp3377
g2565
as(I167
I-1850
I8
tp3378
(lp3379
(I-160
I-2262
I1
tp3380
as(I699
I112
I-79
tp3381
(lp3382
(I372
I-1732
I75
tp3383
asg2892
(lp3384
g2890
as(I706
I727
I-99
tp3385
(lp3386
(I304
I1235
I-105
tp3387
asg593
(lp3388
g591
ag825
as(I271
I-1969
I8
tp3389
(lp3390
(I-314
I-2158
I0
tp3391
asg717
(lp3392
g715
asg3019
(lp3393
(I1110
I-1117
I-70
tp3394
asg129
(lp3395
g127
as(I437
I-1317
I-68
tp3396
(lp3397
(I454
I-1115
I-63
tp3398
ag139
as(I-699
I643
I-69
tp3399
(lp3400
(I-1378
I414
I-53
tp3401
as(I885
I1243
I-87
tp3402
(lp3403
(I-463
I1295
I-95
tp3404
as(I-1065
I-1543
I4
tp3405
(lp3406
(I-668
I-2038
I0
tp3407
asg1851
(lp3408
g1849
as(I-54
I-2031
I0
tp3409
(lp3410
(I96
I-2148
I8
tp3411
asg1152
(lp3412
g1150
asg1174
(lp3413
g1172
ag1554
as(I-576
I1014
I-95
tp3414
(lp3415
(I-600
I1601
I-104
tp3416
asg1334
(lp3417
g1332
asg2523
(lp3418
g2521
asg1234
(lp3419
g1232
asg398
(lp3420
g396
asg1857
(lp3421
g1855
asg269
(lp3422
(I1255
I-1126
I-72
tp3423
asg3154
(lp3424
g3152
asg1408
(lp3425
g1406
as(I488
I-2157
I17
tp3426
(lp3427
(I185
I-1825
I8
tp3428
as(I131
I-656
I-67
tp3429
(lp3430
(I376
I-393
I-71
tp3431
asg2873
(lp3432
g2871
as(I185
I-2100
I9
tp3433
(lp3434
(I-880
I-1450
I0
tp3435
asg2174
(lp3436
g2172
as(I-454
I-882
I-67
tp3437
(lp3438
(I-745
I-978
I-64
tp3439
as(I-2064
I-552
I50
tp3440
(lp3441
(I-1487
I-472
I80
tp3442
asg2757
(lp3443
g2755
as(I242
I867
I-103
tp3444
(lp3445
(I867
I675
I-85
tp3446
asg641
(lp3447
g639
asg2123
(lp3448
g2121
a(I-143
I1313
I-95
tp3449
as(I-1737
I545
I-51
tp3450
(lp3451
(I-2011
I472
I-46
tp3452
asg2919
(lp3453
g2917
asg865
(lp3454
g863
asg2467
(lp3455
g2465
as(I-549
I-1562
I0
tp3456
(lp3457
(I282
I-1456
I133
tp3458
as(I-18
I1276
I-95
tp3459
(lp3460
(I716
I1279
I-101
tp3461
asg2698
(lp3462
g2696
as(I-1029
I-1777
I4
tp3463
(lp3464
(I-686
I-1998
I0
tp3465
as(I591
I-1113
I-63
tp3466
(lp3467
(I379
I-1299
I-68
tp3468
as(I489
I-1707
I-15
tp3469
(lp3470
(I158
I-2072
I8
tp3471
asg3272
(lp3472
g3270
asg1640
(lp3473
g1638
as(I-602
I-2257
I1
tp3474
(lp3475
(I102
I-1994
I8
tp3476
as(I-849
I1788
I-101
tp3477
(lp3478
(I-109
I1266
I-95
tp3479
as(I-151
I-2200
I0
tp3480
(lp3481
(I-454
I-2032
I0
tp3482
asg246
(lp3483
g244
as(I-2008
I434
I-49
tp3484
(lp3485
(I-1702
I513
I-54
tp3486
ag2434
a(I-904
I-979
I-62
tp3487
ag2553
asg619
(lp3488
g617
as(I-532
I57
I-30
tp3489
(lp3490
(I-206
I-58
I-67
tp3491
as(I-1682
I1462
I-51
tp3492
(lp3493
(I-1721
I556
I-51
tp3494
asg2661
(lp3495
g2659
as(I-457
I-677
I-67
tp3496
(lp3497
(I62
I-618
I-67
tp3498
asg105
(lp3499
g103
as(I940
I-1080
I-70
tp3500
(lp3501
(I281
I-1370
I-68
tp3502
as(I-884
I1964
I-104
tp3503
(lp3504
(I-534
I1169
I-95
tp3505
asg191
(lp3506
g189
asg2309
(lp3507
g2307
asg1641
(lp3508
(I1017
I-1040
I-74
tp3509
asg3018
(lp3510
g3016
asg168
(lp3511
g166
asg1913
(lp3512
g1911
as(I-1055
I-1399
I2
tp3513
(lp3514
(I-1463
I-1085
I2
tp3515
asg3468
(lp3516
g3466
asg568
(lp3517
(I-1462
I1382
I-51
tp3518
as(I-1452
I393
I-52
tp3519
(lp3520
(I-781
I642
I-72
tp3521
ag405
asg2055
(lp3522
g2053
asg355
(lp3523
g353
asg1217
(lp3524
(I-667
I601
I-68
tp3525
asg308
(lp3526
g306
as(I-1795
I891
I-51
tp3527
(lp3528
(I-1084
I1988
I-98
tp3529
asg2244
(lp3530
g2242
as(I-544
I-788
I-67
tp3531
(lp3532
(I-481
I-800
I-67
tp3533
asg1417
(lp3534
(I-1344
I-1860
I4
tp3535
asg2479
(lp3536
g2477
asg934
(lp3537
g932
asg1325
(lp3538
g1323
as(I464
I-1773
I47
tp3539
(lp3540
(I472
I-1761
I-60
tp3541
asg437
(lp3542
g435
as(I-516
I1750
I-95
tp3543
(lp3544
(I-160
I1251
I-95
tp3545
asg3181
(lp3546
g3179
asg653
(lp3547
g651
asg1685
(lp3548
g1683
asg111
(lp3549
g109
asg874
(lp3550
g872
as(I1129
I-1217
I-69
tp3551
(lp3552
(I116
I-1326
I-75
tp3553
asg3149
(lp3554
g3147
asg382
(lp3555
g380
asg2686
(lp3556
g2684
asg812
(lp3557
g810
asg1607
(lp3558
g1605
asg609
(lp3559
g607
as(I-1524
I690
I-51
tp3560
(lp3561
(I-1487
I1516
I-51
tp3562
asg3449
(lp3563
(I675
I1314
I-99
tp3564
as(I1232
I-1167
I-72
tp3565
(lp3566
(I702
I-955
I-63
tp3567
as(I153
I-1485
I-70
tp3568
(lp3569
(I1031
I-688
I-71
tp3570
asg2228
(lp3571
g2226
as(I-513
I810
I-95
tp3572
(lp3573
(I-421
I1384
I-104
tp3574
asg3351
(lp3575
g3349
as(I90
I313
I-99
tp3576
(lp3577
(I281
I987
I-103
tp3578
as(I1057
I1269
I-87
tp3579
(lp3580
(I324
I-861
I-69
tp3581
a(I-360
I1307
I-95
tp3582
asg3581
(lp3583
g3579
asg286
(lp3584
g284
asg3479
(lp3585
g3477
as(I-1023
I519
I-63
tp3586
(lp3587
(I-757
I527
I-72
tp3588
asg3306
(lp3589
g3304
as(I-883
I-1321
I-13
tp3590
(lp3591
(I-535
I-2095
I0
tp3592
asg3435
(lp3593
g3433
ag539
asg1760
(lp3594
g1758
as(I-1524
I659
I-51
tp3595
(lp3596
(I-325
I1505
I-95
tp3597
asg2299
(lp3598
g2297
as(I-1641
I-816
I67
tp3599
(lp3600
(I-1823
I-555
I80
tp3601
as(I364
I-1790
I75
tp3602
(lp3603
(I516
I-1596
I-25
tp3604
asg590
(lp3605
g588
as(I758
I1268
I-99
tp3606
(lp3607
(I-444
I1331
I-104
tp3608
as(I-1567
I-1061
I3
tp3609
(lp3610
(I-1511
I-1358
I2
tp3611
as(I-761
I-1564
I0
tp3612
(lp3613
(I367
I-1801
I75
tp3614
as(I-146
I-1887
I0
tp3615
(lp3616
(I-1344
I-1859
I4
tp3617
asg1718
(lp3618
g1716
asg2384
(lp3619
g2382
asg3186
(lp3620
(I-1979
I468
I-50
tp3621
asg1087
(lp3622
g1085
asg2039
(lp3623
g2037
asg2702
(lp3624
g2700
as(I-1709
I708
I-51
tp3625
(lp3626
(I-1515
I1300
I-51
tp3627
as(I237
I1143
I-102
tp3628
(lp3629
(I-1125
I1960
I-89
tp3630
asg404
(lp3631
g402
asg774
(lp3632
(I-619
I672
I-72
tp3633
asg364
(lp3634
g362
asg2225
(lp3635
g2223
as(I-1397
I450
I-53
tp3636
(lp3637
(I-1375
I532
I-53
tp3638
as(I627
I-186
I-77
tp3639
(lp3640
(I574
I430
I-65
tp3641
asg333
(lp3642
g331
as(I-851
I1684
I-103
tp3643
(lp3644
(I-544
I1563
I-104
tp3645
a(I-547
I1184
I-95
tp3646
a(I-1242
I1647
I-96
tp3647
as(I-1572
I1444
I-51
tp3648
(lp3649
(I651
I-703
I-66
tp3650
a(I102
I1242
I-95
tp3651
asg1993
(lp3652
g1991
asg108
(lp3653
g106
asg1097
(lp3654
(I-1087
I1984
I-98
tp3655
as(I-22
I1187
I-95
tp3656
(lp3657
(I-978
I1978
I-102
tp3658
ag3169
a(I-839
I1716
I-103
tp3659
ag312
asg982
(lp3660
g980
as(I723
I-455
I-77
tp3661
(lp3662
(I440
I804
I-100
tp3663
as(I-794
I1420
I-101
tp3664
(lp3665
(I-1502
I1317
I-51
tp3666
as(I56
I-158
I-99
tp3667
(lp3668
(I499
I177
I-87
tp3669
as(I95
I1222
I-95
tp3670
(lp3671
(I856
I420
I-85
tp3672
asg2079
(lp3673
g2077
asg3597
(lp3674
g3595
as(I161
I-1776
I7
tp3675
(lp3676
(I201
I-1307
I-70
tp3677
asg2882
(lp3678
g2880
asg2725
(lp3679
g2723
asg3112
(lp3680
g3110
asg3207
(lp3681
g3205
asg1440
(lp3682
g1438
as(I785
I-218
I-82
tp3683
(lp3684
(I821
I-1353
I-70
tp3685
as(I258
I-1538
I-72
tp3686
(lp3687
(I-83
I-1389
I-73
tp3688
asg928
(lp3689
g926
a(I151
I-1822
I8
tp3690
as(I819
I1256
I-87
tp3691
(lp3692
(I541
I219
I-88
tp3693
asg2593
(lp3694
g2591
asg1454
(lp3695
g1452
asg3245
(lp3696
g3243
a(I-1557
I924
I-51
tp3697
asg237
(lp3698
g235
as(I65
I-2046
I7
tp3699
(lp3700
(I-642
I-2270
I9
tp3701
asg3461
(lp3702
g3459
asg2941
(lp3703
g2939
asg683
(lp3704
g681
asg1901
(lp3705
g1899
asg234
(lp3706
g232
asg2052
(lp3707
(I-1906
I179
I-53
tp3708
a(I-1704
I535
I-51
tp3709
asg1270
(lp3710
g1268
asg3407
(lp3711
g3405
as(I-817
I242
I-67
tp3712
(lp3713
(I-763
I492
I-72
tp3714
asg3318
(lp3715
g3316
asg62
(lp3716
g60
asg1081
(lp3717
g1079
ag2794
as(I622
I-1678
I-43
tp3718
(lp3719
(I-709
I-1797
I1
tp3720
as(I1052
I1156
I-87
tp3721
(lp3722
(I649
I846
I-100
tp3723
as(I767
I1325
I-97
tp3724
(lp3725
(I-1588
I1387
I-51
tp3726
as(I-20
I-2047
I3
tp3727
(lp3728
(I-567
I-2288
I1
tp3729
asg1533
(lp3730
g1531
ag2494
a(I411
I1429
I-102
tp3731
ag1788
a(I710
I833
I-100
tp3732
asg3269
(lp3733
g3267
ag3609
as(I-543
I781
I-84
tp3734
(lp3735
(I-603
I1359
I-102
tp3736
asg1075
(lp3737
g1073
as(I149
I1085
I-95
tp3738
(lp3739
(I-469
I1410
I-103
tp3740
asg3130
(lp3741
g3128
as(I486
I-1284
I-68
tp3742
(lp3743
(I367
I-1118
I-70
tp3744
asg3685
(lp3745
g3683
asg1519
(lp3746
g1517
asg918
(lp3747
g916
asg178
(lp3748
g176
as(I-89
I-1663
I0
tp3749
(lp3750
(I-748
I-1511
I0
tp3751
asg815
(lp3752
g813
asg2065
(lp3753
g2063
asg1399
(lp3754
g1397
as(I-745
I-978
I-64
tp3755
(lp3756
(I-514
I-909
I-67
tp3757
ag3437
asg2930
(lp3758
g2928
asg1494
(lp3759
g1492
asg2529
(lp3760
g2527
asg1273
(lp3761
g1271
asg2876
(lp3762
g2874
as(I-233
I-2182
I1
tp3763
(lp3764
(I145
I-2119
I9
tp3765
asg2160
(lp3766
g2158
as(I-1114
I1978
I-93
tp3767
(lp3768
(I-1773
I853
I-51
tp3769
ag2007
asg2829
(lp3770
g2827
asg548
(lp3771
g546
asg1714
(lp3772
g1712
asg3570
(lp3773
g3568
a(I726
I-1578
I-60
tp3774
as(I696
I-904
I-63
tp3775
(lp3776
(I263
I-590
I-72
tp3777
as(I-1497
I1335
I-51
tp3778
(lp3779
(I477
I1311
I-102
tp3780
asg3374
(lp3781
g3372
asg1350
(lp3782
g1348
asg2421
(lp3783
g2419
asg3428
(lp3784
g3426
asg2118
(lp3785
g2116
as(I131
I315
I-99
tp3786
(lp3787
(I136
I-298
I-99
tp3788
asg1670
(lp3789
g1668
a(I-1511
I1380
I-51
tp3790
ag1409
ag1835
a(I-1378
I1452
I-62
tp3791
as(I134
I552
I-95
tp3792
(lp3793
(I277
I791
I-104
tp3794
asg3047
(lp3795
g3045
asg606
(lp3796
g604
asg1171
(lp3797
(I-704
I-1742
I0
tp3798
asg2956
(lp3799
g2954
as(I-1702
I1568
I-51
tp3800
(lp3801
(I-1483
I1495
I-51
tp3802
ag2942
asg3036
(lp3803
g3034
ag648
asg3008
(lp3804
g3006
asg824
(lp3805
g822
asg3545
(lp3806
g3543
as(I142
I-94
I-99
tp3807
(lp3808
(I-934
I37
I-67
tp3809
asg2885
(lp3810
g2883
ag290
asg422
(lp3811
g420
asg492
(lp3812
g490
asg3174
(lp3813
g3172
as(I-1544
I-802
I42
tp3814
(lp3815
(I1243
I-1166
I-73
tp3816
ag1238
a(I1243
I-1166
I-73
tp3817
asg2414
(lp3818
g2412
asg2733
(lp3819
g2731
as(I-781
I484
I-72
tp3820
(lp3821
(I-827
I89
I-67
tp3822
as(I576
I-1690
I-60
tp3823
(lp3824
(I645
I-1537
I-60
tp3825
asg2016
(lp3826
g2014
asg3465
(lp3827
g3463
asg2295
(lp3828
g2293
as(I-1646
I682
I-51
tp3829
(lp3830
(I-1705
I503
I-54
tp3831
asg1637
(lp3832
g1635
asg138
(lp3833
g136
asg1101
(lp3834
g1099
a(I-1703
I43
I-45
tp3835
as(I-816
I415
I-67
tp3836
(lp3837
(I-458
I870
I-95
tp3838
as(I-1483
I1315
I-51
tp3839
(lp3840
(I-267
I1259
I-95
tp3841
asg352
(lp3842
g350
as(I-2017
I71
I-51
tp3843
(lp3844
(I-1556
I920
I-51
tp3845
asg671
(lp3846
g669
asg523
(lp3847
g521
as(I-792
I273
I-67
tp3848
(lp3849
(I-782
I-39
I-67
tp3850
asg3164
(lp3851
g3162
as(I-189
I-1614
I0
tp3852
(lp3853
(I-1352
I-1414
I2
tp3854
asg1436
(lp3855
g1434
asg806
(lp3856
g804
as(I-700
I-927
I-67
tp3857
(lp3858
(I-326
I-863
I-67
tp3859
asg714
(lp3860
g712
asg2790
(lp3861
g2788
as(I-411
I1396
I-97
tp3862
(lp3863
(I-686
I1415
I-101
tp3864
asg1098
(lp3865
(I-1087
I1984
I-98
tp3866
as(I-1517
I514
I-54
tp3867
(lp3868
(I-1524
I664
I-51
tp3869
asg1872
(lp3870
g1870
asg2250
(lp3871
g2248
asg1258
(lp3872
g1256
asg3005
(lp3873
g3003
asg2448
(lp3874
g2446
as(I-1986
I412
I-53
tp3875
(lp3876
(I-1651
I-345
I80
tp3877
asg3200
(lp3878
g3198
as(I-361
I-683
I-67
tp3879
(lp3880
(I705
I-706
I-69
tp3881
asg1724
(lp3882
g1722
as(I-930
I-1788
I0
tp3883
(lp3884
(I-1304
I-1558
I4
tp3885
asg3588
(lp3886
g3586
asg320
(lp3887
g318
as(I225
I-284
I-99
tp3888
(lp3889
(I871
I-332
I-73
tp3890
asg2739
(lp3891
g2737
as(I-1936
I346
I-54
tp3892
(lp3893
(I-1735
I-402
I80
tp3894
asg3229
(lp3895
g3227
asg2847
(lp3896
g2845
asg2334
(lp3897
g2332
asg2059
(lp3898
g2057
asg1968
(lp3899
g1966
asg2520
(lp3900
g2518
asg2051
(lp3901
g2049
asg3014
(lp3902
g3012
as(I611
I-1222
I-71
tp3903
(lp3904
(I724
I-1149
I-71
tp3905
asg1730
(lp3906
g1728
asg3030
(lp3907
g3028
asg2112
(lp3908
(I-899
I1736
I-104
tp3909
asg3729
(lp3910
g3727
as(I-206
I-2039
I0
tp3911
(lp3912
(I-1227
I-1728
I4
tp3913
asg2994
(lp3914
g2992
as(I-567
I1460
I-102
tp3915
(lp3916
(I-701
I1683
I-104
tp3917
as(I384
I-1732
I78
tp3918
(lp3919
(I350
I-1920
I49
tp3920
as(I-1459
I358
I-52
tp3921
(lp3922
(I77
I1076
I-92
tp3923
as(I554
I-748
I-68
tp3924
(lp3925
(I769
I-523
I-77
tp3926
asg625
(lp3927
g623
ag3444
asg3218
(lp3928
g3216
as(I-1933
I403
I-53
tp3929
(lp3930
(I-1710
I464
I-53
tp3931
as(I-417
I68
I-49
tp3932
(lp3933
(I372
I-42
I-82
tp3934
asg507
(lp3935
g505
asg3714
(lp3936
g3712
a(I-822
I67
I-67
tp3937
asg464
(lp3938
g462
as(I-1539
I-215
I-3
tp3939
(lp3940
(I-1774
I-200
I-44
tp3941
as(I705
I-706
I-69
tp3942
(lp3943
(I820
I253
I-85
tp3944
ag3879
asg1559
(lp3945
g1557
asg1935
(lp3946
g1933
as(I-290
I-1788
I0
tp3947
(lp3948
(I-1344
I-1859
I4
tp3949
as(I44
I-95
I-94
tp3950
(lp3951
(I-820
I-52
I-67
tp3952
asg3040
(lp3953
g3038
asg2030
(lp3954
g2028
as(I-1540
I1260
I-51
tp3955
(lp3956
(I-2043
I41
I-48
tp3957
as(I-425
I1181
I-95
tp3958
(lp3959
(I-1454
I1542
I-51
tp3960
as(I-545
I-697
I-67
tp3961
(lp3962
(I-467
I-148
I-67
tp3963
asg3368
(lp3964
g3366
asg2187
(lp3965
g2185
as(I-1026
I1934
I-99
tp3966
(lp3967
(I-208
I1323
I-95
tp3968
asg834
(lp3969
(I-1432
I1384
I-51
tp3970
as(I801
I-1442
I-65
tp3971
(lp3972
(I368
I-1773
I75
tp3973
asg970
(lp3974
(I-504
I1249
I-95
tp3975
asg327
(lp3976
g325
asg181
(lp3977
g179
as(I-420
I-859
I-67
tp3978
(lp3979
(I36
I-1029
I-69
tp3980
asg3486
(lp3981
g3484
as(I-624
I-2038
I0
tp3982
(lp3983
(I-448
I-1825
I0
tp3984
as(I-1643
I403
I-52
tp3985
(lp3986
(I-1668
I421
I-53
tp3987
asg274
(lp3988
g272
as(I708
I-1275
I-71
tp3989
(lp3990
(I672
I-1303
I-71
tp3991
asg2275
(lp3992
g2273
asg3841
(lp3993
g3839
ag3121
asg3731
(lp3994
(I1104
I1144
I-87
tp3995
asg3106
(lp3996
g3104
asg2362
(lp3997
g2360
asg2851
(lp3998
g2849
as(I-651
I603
I-68
tp3999
(lp4000
(I-781
I425
I-67
tp4001
asg1139
(lp4002
g1137
a(I-1575
I1163
I-51
tp4003
asg2090
(lp4004
g2088
asg991
(lp4005
g989
asg1631
(lp4006
g1629
asg1860
(lp4007
g1858
a(I-642
I-1738
I0
tp4008
asg3515
(lp4009
g3513
as(I-1157
I539
I-58
tp4010
(lp4011
(I-844
I502
I-69
tp4012
as(I-1404
I411
I-53
tp4013
(lp4014
(I-1008
I-1884
I4
tp4015
as(I-1730
I525
I-51
tp4016
(lp4017
(I-1845
I414
I-53
tp4018
asg2972
(lp4019
g2970
asg1598
(lp4020
g1596
as(I-565
I-2287
I1
tp4021
(lp4022
(I146
I-1620
I-44
tp4023
as(I1233
I-1166
I-72
tp4024
(lp4025
(I152
I-1430
I-68
tp4026
ag133
ag1030
asg689
(lp4027
g687
asg1180
(lp4028
g1178
as(I-490
I1297
I-95
tp4029
(lp4030
(I-631
I791
I-95
tp4031
as(I251
I-1973
I8
tp4032
(lp4033
(I-41
I-1953
I35
tp4034
as(I-261
I70
I-67
tp4035
(lp4036
(I-799
I2
I-67
tp4037
asg3064
(lp4038
g3062
asg1781
(lp4039
g1779
as(I-129
I-35
I-67
tp4040
(lp4041
(I-560
I-366
I-67
tp4042
asg2535
(lp4043
g2533
asg859
(lp4044
g857
asg3984
(lp4045
g3982
asg3095
(lp4046
g3093
a(I-1639
I-376
I80
tp4047
as(I-1619
I1023
I-51
tp4048
(lp4049
(I-1620
I1152
I-51
tp4050
asg535
(lp4051
(I-79
I-1393
I-73
tp4052
as(I714
I-987
I-59
tp4053
(lp4054
(I-22
I-1429
I5
tp4055
asg3487
(lp4056
(I-2008
I434
I-49
tp4057
asg447
(lp4058
g445
asg2867
(lp4059
g2865
as(I528
I-1840
I52
tp4060
(lp4061
(I-1114
I-1782
I4
tp4062
asg3816
(lp4063
g3814
a(I-1544
I-802
I42
tp4064
asg2359
(lp4065
g2357
as(I615
I-1594
I-60
tp4066
(lp4067
(I615
I-1612
I-60
tp4068
asg1127
(lp4069
g1125
as(I195
I1244
I-95
tp4070
(lp4071
(I-1449
I1373
I-51
tp4072
asg2138
(lp4073
g2136
asg2320
(lp4074
g2318
a(I-1544
I1184
I-51
tp4075
asg1624
(lp4076
g1622
asg3376
(lp4077
(I-1277
I552
I-55
tp4078
as(I36
I-1422
I-72
tp4079
(lp4080
(I358
I-898
I-63
tp4081
as(I-328
I-627
I-67
tp4082
(lp4083
(I-715
I-894
I-67
tp4084
asg3614
(lp4085
g3612
asg1429
(lp4086
g1427
a(I125
I106
I-99
tp4087
asg2602
(lp4088
g2600
asg3136
(lp4089
g3134
asg2552
(lp4090
g2550
asg1679
(lp4091
g1677
as(I-1376
I1493
I-64
tp4092
(lp4093
(I-433
I1187
I-95
tp4094
asg985
(lp4095
g983
asg846
(lp4096
g844
as(I-1588
I1114
I-51
tp4097
(lp4098
(I-1985
I-120
I-33
tp4099
as(I-579
I1095
I-95
tp4100
(lp4101
(I-421
I1384
I-104
tp4102
asg3241
(lp4103
g3239
a(I517
I-1719
I-60
tp4104
ag3201
ag1917
as(I-650
I1388
I-78
tp4105
(lp4106
(I-904
I1349
I-101
tp4107
asg117
(lp4108
g115
asg2561
(lp4109
g2559
ag3000
ag2372
asg3442
(lp4110
g3440
asg3391
(lp4111
g3389
as(I-983
I-1823
I4
tp4112
(lp4113
(I-754
I-1095
I-62
tp4114
asg132
(lp4115
g130
asg3659
(lp4116
(I-22
I1187
I-95
tp4117
as(I120
I-1422
I-68
tp4118
(lp4119
(I-835
I-1945
I0
tp4120
asg4081
(lp4121
g4079
as(I1160
I-1164
I-70
tp4122
(lp4123
(I217
I-1386
I-69
tp4124
asg730
(lp4125
g728
asg3297
(lp4126
(I-589
I-1486
I4
tp4127
as(I-683
I-107
I61
tp4128
(lp4129
(I-1529
I-464
I97
tp4130
asg2742
(lp4131
g2740
asg3416
(lp4132
g3414
as(I472
I-1764
I-60
tp4133
(lp4134
(I43
I1241
I-95
tp4135
as(I-1310
I-1507
I4
tp4136
(lp4137
(I-587
I-1790
I0
tp4138
as(I50
I-20
I-98
tp4139
(lp4140
(I269
I957
I-103
tp4141
asg555
(lp4142
(I904
I642
I-85
tp4143
as(I-905
I-1284
I-20
tp4144
(lp4145
(I-859
I-1120
I-60
tp4146
ag2821
asg3315
(lp4147
(I-598
I-2257
I1
tp4148
as(I473
I-1760
I-60
tp4149
(lp4150
(I463
I-1747
I69
tp4151
ag2148
as(I-820
I-1687
I0
tp4152
(lp4153
(I29
I-2039
I7
tp4154
asg3346
(lp4155
g3344
asg1281
(lp4156
g1279
asg2426
(lp4157
g2424
asg3226
(lp4158
g3224
as(I142
I-1163
I-70
tp4159
(lp4160
(I178
I-1665
I-16
tp4161
asg1416
(lp4162
(I-1344
I-1860
I4
tp4163
as(I-324
I1478
I-95
tp4164
(lp4165
(I-285
I1376
I-95
tp4166
asg3957
(lp4167
g3955
asg3404
(lp4168
g3402
asg489
(lp4169
g487
asg2969
(lp4170
g2967
asg2072
(lp4171
g2070
asg2774
(lp4172
(I137
I-205
I-99
tp4173
asg2312
(lp4174
g2310
asg2576
(lp4175
(I724
I1288
I-101
tp4176
asg3980
(lp4177
g3978
a(I-86
I-1661
I0
tp4178
as(I63
I132
I-99
tp4179
(lp4180
(I123
I460
I-95
tp4181
asg2292
(lp4182
g2290
asg1486
(lp4183
(I256
I1163
I-106
tp4184
asg1889
(lp4185
g1887
asg1829
(lp4186
g1827
asg2430
(lp4187
g2428
asg4102
(lp4188
g4100
ag3572
as(I-1456
I1378
I-51
tp4189
(lp4190
(I-1763
I969
I-51
tp4191
asg584
(lp4192
g582
as(I145
I725
I-95
tp4193
(lp4194
(I561
I353
I-91
tp4195
as(I-590
I-1479
I5
tp4196
(lp4197
(I-804
I-1577
I0
tp4198
asg3313
(lp4199
g3311
as(I738
I952
I-99
tp4200
(lp4201
(I603
I-568
I-66
tp4202
asg2841
(lp4203
(I373
I-1787
I75
tp4204
as(I240
I1143
I-104
tp4205
(lp4206
(I-1125
I1960
I-89
tp4207
asg558
(lp4208
g556
as(I-565
I-2294
I1
tp4209
(lp4210
(I-712
I-1486
I0
tp4211
as(I-303
I-230
I-67
tp4212
(lp4213
(I-782
I89
I-67
tp4214
asg3302
(lp4215
g3300
as(I801
I-1367
I-72
tp4216
(lp4217
(I833
I-1365
I-70
tp4218
as(I-1196
I-1679
I4
tp4219
(lp4220
(I170
I-1823
I8
tp4221
as(I756
I-1322
I-71
tp4222
(lp4223
(I205
I-1379
I-69
tp4224
asg1026
(lp4225
g1024
as(I548
I-1644
I-46
tp4226
(lp4227
(I373
I-1765
I75
tp4228
asg2589
(lp4229
g2587
asg215
(lp4230
g213
asg3314
(lp4231
(I-598
I-2257
I1
tp4232
asg2692
(lp4233
g2690
asg2751
(lp4234
g2749
ag910
ag3686
asg3944
(lp4235
g3942
asg410
(lp4236
g408
as(I-1709
I748
I-51
tp4237
(lp4238
(I-1449
I1475
I-51
tp4239
ag816
asg4008
(lp4240
(I-573
I-2290
I1
tp4241
asg4228
(lp4242
g4226
asg3864
(lp4243
g3862
asg1481
(lp4244
g1479
as(I-364
I1742
I-95
tp4245
(lp4246
(I-631
I791
I-95
tp4247
asg2715
(lp4248
(I403
I-1216
I-70
tp4249
asg2910
(lp4250
g2908
asg1231
(lp4251
g1229
asg3027
(lp4252
g3025
as(I341
I-417
I-74
tp4253
(lp4254
(I351
I-261
I-75
tp4255
asg3076
(lp4256
g3074
asg3371
(lp4257
g3369
asg153
(lp4258
g151
asg3790
(lp4259
(I-1522
I659
I-51
tp4260
as(I13
I-655
I-67
tp4261
(lp4262
(I127
I-569
I-67
tp4263
as(I-524
I964
I-95
tp4264
(lp4265
(I-572
I1277
I-95
tp4266
asg4263
(lp4267
g4261
as(I360
I-1967
I26
tp4268
(lp4269
(I372
I-1732
I75
tp4270
asg2780
(lp4271
g2778
as(I-1763
I136
I-50
tp4272
(lp4273
(I-1670
I562
I-51
tp4274
asg724
(lp4275
g722
as(I-1789
I-604
I80
tp4276
(lp4277
(I-1935
I-425
I61
tp4278
as(I-1061
I583
I-65
tp4279
(lp4280
(I-1323
I461
I-52
tp4281
asg1457
(lp4282
g1455
asg644
(lp4283
g642
asg3617
(lp4284
g3615
ag3947
asg2922
(lp4285
g2920
asg1035
(lp4286
g1033
as(I-1533
I998
I-51
tp4287
(lp4288
(I-1719
I526
I-51
tp4289
as(I-215
I1383
I-95
tp4290
(lp4291
(I-1701
I484
I-53
tp4292
as(I-841
I540
I-71
tp4293
(lp4294
(I-1150
I626
I-68
tp4295
as(I-40
I-2013
I2
tp4296
(lp4297
(I311
I-1949
I35
tp4298
as(I-28
I-1259
I-73
tp4299
(lp4300
(I-13
I-1495
I5
tp4301
as(I374
I-1690
I56
tp4302
(lp4303
(I334
I-1869
I52
tp4304
asg3677
(lp4305
g3675
asg3647
(lp4306
(I-851
I1684
I-103
tp4307
asg4087
(lp4308
(I217
I1170
I-95
tp4309
as(I-743
I-307
I-67
tp4310
(lp4311
(I-525
I-419
I-67
tp4312
asg2241
(lp4313
g2239
as(I-265
I1298
I-95
tp4314
(lp4315
(I-226
I1293
I-95
tp4316
asg3693
(lp4317
g3691
ag2597
asg3118
(lp4318
g3116
as(I-1737
I847
I-51
tp4319
(lp4320
(I-1434
I1469
I-51
tp4321
asg4298
(lp4322
g4296
as(I-66
I-1054
I-55
tp4323
(lp4324
(I838
I-1178
I-71
tp4325
asg2075
(lp4326
g2073
asg1715
(lp4327
(I-1334
I-1859
I4
tp4328
asg3736
(lp4329
g3734
asg3641
(lp4330
g3639
as(I-1566
I192
I-49
tp4331
(lp4332
(I-1560
I172
I-49
tp4333
as(I-827
I-209
I-67
tp4334
(lp4335
(I-597
I-605
I-67
tp4336
asg4154
(lp4337
g4152
as(I199
I-621
I-67
tp4338
(lp4339
(I820
I-890
I-78
tp4340
asg3663
(lp4341
g3661
asg1698
(lp4342
g1696
as(I-871
I1893
I-103
tp4343
(lp4344
(I-417
I729
I-78
tp4345
as(I-1758
I460
I-53
tp4346
(lp4347
(I-1571
I1106
I-51
tp4348
asg3931
(lp4349
g3929
asg218
(lp4350
g216
asg2399
(lp4351
g2397
asg2076
(lp4352
(I450
I-1789
I-60
tp4353
as(I381
I-1916
I68
tp4354
(lp4355
(I255
I-1286
I-68
tp4356
asg2443
(lp4357
g2441
asg794
(lp4358
g792
asg2354
(lp4359
g2352
asg3850
(lp4360
g3848
as(I-1533
I672
I-51
tp4361
(lp4362
(I-2084
I162
I-54
tp4363
as(I-1811
I67
I-49
tp4364
(lp4365
(I-1553
I1189
I-51
tp4366
asg2407
(lp4367
g2405
asg1922
(lp4368
g1920
as(I-1123
I1400
I-102
tp4369
(lp4370
(I-1194
I1663
I-98
tp4371
asg3332
(lp4372
g3330
asg2391
(lp4373
g2389
asg3140
(lp4374
g3138
asg3102
(lp4375
g3100
asg1414
(lp4376
g1412
as(I-1770
I926
I-51
tp4377
(lp4378
(I-1527
I1172
I-51
tp4379
as(I358
I93
I-86
tp4380
(lp4381
(I-541
I-310
I-67
tp4382
asg797
(lp4383
g795
asg662
(lp4384
g660
as(I-190
I-2264
I1
tp4385
(lp4386
(I202
I-1920
I8
tp4387
as(I878
I-964
I-77
tp4388
(lp4389
(I659
I-580
I-68
tp4390
asg4181
(lp4391
g4179
as(I717
I1252
I-100
tp4392
(lp4393
(I-207
I1337
I-95
tp4394
asg3339
(lp4395
g3337
asg3090
(lp4396
g3088
asg564
(lp4397
g562
asg3934
(lp4398
g3932
asg1373
(lp4399
g1371
asg3085
(lp4400
g3083
asg4340
(lp4401
g4338
as(I-716
I-1967
I0
tp4402
(lp4403
(I136
I-1967
I8
tp4404
as(I-118
I1
I-67
tp4405
(lp4406
(I-813
I-31
I-67
tp4407
as(I-783
I-258
I-67
tp4408
(lp4409
(I-817
I318
I-67
tp4410
asg2480
(lp4411
(I441
I-1673
I-60
tp4412
asg49
(lp4413
g47
asg3281
(lp4414
(I637
I-1192
I-71
tp4415
asg3521
(lp4416
g3519
asg482
(lp4417
g480
as(I-603
I-2259
I2
tp4418
(lp4419
(I201
I-1901
I8
tp4420
as(I411
I-1750
I75
tp4421
(lp4422
(I472
I-1761
I-60
tp4423
a(I472
I-1761
I-60
tp4424
asg3401
(lp4425
g3399
asg2459
(lp4426
g2457
asg711
(lp4427
g709
asg451
(lp4428
g449
asg2470
(lp4429
g2468
asg3324
(lp4430
g3322
as(I-1774
I-737
I80
tp4431
(lp4432
(I-1789
I-520
I80
tp4433
asg1277
(lp4434
g1275
asg486
(lp4435
(I135
I1241
I-95
tp4436
asg4107
(lp4437
g4105
as(I-1954
I170
I-53
tp4438
(lp4439
(I-1564
I592
I-51
tp4440
as(I451
I-1744
I73
tp4441
(lp4442
(I472
I-1761
I-60
tp4443
asg3835
(lp4444
(I-1287
I426
I-52
tp4445
asg3146
(lp4446
g3144
asg3505
(lp4447
g3503
asg2381
(lp4448
g2379
asg2396
(lp4449
(I165
I-1984
I8
tp4450
as(I187
I-1620
I-43
tp4451
(lp4452
(I-81
I-1795
I0
tp4453
asg1149
(lp4454
g1147
asg2803
(lp4455
g2801
asg4304
(lp4456
g4302
asg3321
(lp4457
g3319
as(I-1121
I518
I-59
tp4458
(lp4459
(I-1738
I519
I-51
tp4460
asg1733
(lp4461
g1731
asg837
(lp4462
g835
as(I573
I-1117
I-63
tp4463
(lp4464
(I670
I-1535
I-60
tp4465
as(I-1864
I-480
I80
tp4466
(lp4467
(I-1774
I-573
I80
tp4468
as(I-1550
I591
I-51
tp4469
(lp4470
(I-1728
I-211
I40
tp4471
asg1784
(lp4472
g1782
a(I-1750
I-763
I80
tp4473
asg510
(lp4474
g508
as(I-498
I1373
I-103
tp4475
(lp4476
(I-1026
I1403
I-101
tp4477
asg126
(lp4478
g124
asg4443
(lp4479
g4441
ag4421
a(I411
I-1750
I75
tp4480
ag3190
ag3539
ag148
ag3041
a(I512
I-1687
I-60
tp4481
ag2483
a(I836
I-1410
I-65
tp4482
asg3941
(lp4483
g3939
as(I616
I-1565
I-60
tp4484
(lp4485
(I634
I-1542
I-60
tp4486
asg1587
(lp4487
g1585
asg1247
(lp4488
g1245
asg4387
(lp4489
g4385
asg1300
(lp4490
g1298
asg1114
(lp4491
g1112
asg3143
(lp4492
g3141
ag3340
asg2255
(lp4493
g2253
asg1572
(lp4494
g1570
as(I-572
I-1725
I0
tp4495
(lp4496
(I-805
I-1232
I-36
tp4497
asg1047
(lp4498
g1045
asg4356
(lp4499
g4354
as(I-132
I-1772
I0
tp4500
(lp4501
(I-1416
I-1344
I2
tp4502
asg4440
(lp4503
g4438
as(I826
I1296
I-87
tp4504
(lp4505
(I-1129
I1389
I-102
tp4506
asg1708
(lp4507
g1706
asg1972
(lp4508
g1970
asg2115
(lp4509
g2113
asg755
(lp4510
g753
asg3255
(lp4511
g3253
as(I-810
I-1515
I0
tp4512
(lp4513
(I-927
I-1748
I0
tp4514
asg1615
(lp4515
g1613
asg997
(lp4516
g995
asg2206
(lp4517
g2204
as(I-656
I1531
I-103
tp4518
(lp4519
(I-1487
I1381
I-51
tp4520
asg358
(lp4521
g356
as(I-1517
I368
I-52
tp4522
(lp4523
(I-1559
I-50
I-46
tp4524
asg3431
(lp4525
g3429
asg3161
(lp4526
g3159
asg4301
(lp4527
g4299
asg4104
(lp4528
(I810
I-980
I80
tp4529
as(I77
I183
I-99
tp4530
(lp4531
(I477
I1337
I-102
tp4532
asg4211
(lp4533
g4209
asg2266
(lp4534
g2264
asg699
(lp4535
g697
asg4363
(lp4536
g4361
asg3295
(lp4537
g3293
asg1376
(lp4538
g1374
asg4506
(lp4539
g4504
asg925
(lp4540
g923
asg2048
(lp4541
g2046
ag2752
asg4120
(lp4542
g4118
ag2818
as(I-52
I-1281
I-73
tp4543
(lp4544
(I-287
I-790
I-67
tp4545
asg2343
(lp4546
g2341
asg2901
(lp4547
g2899
asg2370
(lp4548
(I-305
I1399
I-95
tp4549
asg4420
(lp4550
g4418
asg3364
(lp4551
g3362
a(I282
I-1455
I107
tp4552
ag2893
asg1340
(lp4553
g1338
ag3911
asg4453
(lp4554
g4451
asg3482
(lp4555
g3480
asg2793
(lp4556
g2791
as(I197
I500
I-95
tp4557
(lp4558
(I295
I542
I-101
tp4559
as(I363
I-1822
I75
tp4560
(lp4561
(I369
I-1751
I79
tp4562
as(I-271
I-104
I-67
tp4563
(lp4564
(I-629
I-508
I-67
tp4565
asg4404
(lp4566
g4402
asg4034
(lp4567
g4032
asg3232
(lp4568
g3230
asg2190
(lp4569
g2188
asg3266
(lp4570
g3264
asg3023
(lp4571
g3021
asg3491
(lp4572
g3489
a(I-649
I-318
I-67
tp4573
asg3221
(lp4574
g3219
asg2834
(lp4575
g2832
asg2532
(lp4576
g2530
asg4221
(lp4577
g4219
asg317
(lp4578
g315
as(I-759
I-350
I-67
tp4579
(lp4580
(I-801
I404
I-67
tp4581
as(I-929
I-1751
I0
tp4582
(lp4583
(I-810
I-1516
I0
tp4584
as(I-517
I-30
I-67
tp4585
(lp4586
(I646
I34
I-85
tp4587
asg3926
(lp4588
g3924
asg674
(lp4589
g672
asg2916
(lp4590
g2914
as(I0
I1246
I-95
tp4591
(lp4592
(I-207
I1389
I-95
tp4593
asg1477
(lp4594
g1475
asg3991
(lp4595
g3989
asg4001
(lp4596
g3999
asg2289
(lp4597
g2287
asg2636
(lp4598
g2634
asg868
(lp4599
g866
as(I-1599
I962
I-51
tp4600
(lp4601
(I-1734
I498
I-53
tp4602
asg1644
(lp4603
g1642
asg520
(lp4604
g518
as(I-371
I-856
I-67
tp4605
(lp4606
(I-189
I-907
I-67
tp4607
asg4407
(lp4608
g4405
asg89
(lp4609
g87
asg2981
(lp4610
g2979
as(I-784
I-1807
I0
tp4611
(lp4612
(I337
I-1905
I52
tp4613
asg3627
(lp4614
g3625
asg3411
(lp4615
g3409
asg3553
(lp4616
g3551
as(I489
I-1711
I-60
tp4617
(lp4618
(I654
I-1529
I-60
tp4619
asg1627
(lp4620
g1625
asg1010
(lp4621
g1008
a(I-909
I1907
I-103
tp4622
as(I836
I-620
I-71
tp4623
(lp4624
(I653
I-1524
I-60
tp4625
ag1950
asg2514
(lp4626
g2512
asg4161
(lp4627
g4159
asg3529
(lp4628
g3527
asg2670
(lp4629
g2668
asg2474
(lp4630
g2472
asg886
(lp4631
g884
asg1421
(lp4632
(I-1344
I-1860
I4
tp4633
asg2768
(lp4634
g2766
asg86
(lp4635
g84
as(I-1673
I429
I-53
tp4636
(lp4637
(I-974
I592
I-67
tp4638
asg1306
(lp4639
g1304
as(I-570
I1470
I-102
tp4640
(lp4641
(I-884
I1836
I-104
tp4642
asg3822
(lp4643
g3820
asg2548
(lp4644
g2546
asg1367
(lp4645
g1365
asg2282
(lp4646
g2280
as(I-1671
I1535
I-51
tp4647
(lp4648
(I-274
I1240
I-92
tp4649
asg4366
(lp4650
g4364
asg4266
(lp4651
g4264
asg2377
(lp4652
g2375
ag2868
as(I77
I1076
I-92
tp4653
(lp4654
(I120
I1052
I-95
tp4655
ag3921
asg3133
(lp4656
g3131
asg289
(lp4657
g287
asg4602
(lp4658
g4600
asg1674
(lp4659
(I-559
I1393
I-103
tp4660
asg4333
(lp4661
g4331
asg3126
(lp4662
g3124
asg2536
(lp4663
(I-555
I-2269
I0
tp4664
asg3774
(lp4665
(I1031
I-688
I-71
tp4666
as(I188
I1076
I-95
tp4667
(lp4668
(I71
I999
I-92
tp4669
asg1420
(lp4670
(I-1344
I-1860
I4
tp4671
asg3854
(lp4672
g3852
asg2888
(lp4673
g2886
asg3831
(lp4674
g3829
as(I681
I-1452
I-64
tp4675
(lp4676
(I-478
I-527
I-67
tp4677
asg4545
(lp4678
g4543
as(I-1673
I825
I-25
tp4679
(lp4680
(I-1768
I839
I-48
tp4681
asg2209
(lp4682
g2207
a(I-54
I1259
I-95
tp4683
asg4135
(lp4684
g4133
asg4099
(lp4685
g4097
asg1653
(lp4686
g1651
asg4278
(lp4687
g4276
asg3361
(lp4688
g3359
asg4239
(lp4689
g4237
asg3845
(lp4690
g3843
asg1840
(lp4691
g1838
ag2614
asg2657
(lp4692
g2655
asg1578
(lp4693
g1576
asg1584
(lp4694
g1582
asg4593
(lp4695
g4591
as(I-742
I-913
I-67
tp4696
(lp4697
(I-987
I-1311
I2
tp4698
asg1460
(lp4699
g1458
asg2953
(lp4700
g2951
asg2564
(lp4701
g2562
asg1701
(lp4702
g1699
asg843
(lp4703
g841
asg3387
(lp4704
g3385
asg1854
(lp4705
g1852
asg1536
(lp4706
g1534
asg3666
(lp4707
g3664
asg25
(lp4708
g23
asg949
(lp4709
g947
asg2433
(lp4710
g2431
asg581
(lp4711
g579
asg3890
(lp4712
g3888
as(I-481
I956
I-95
tp4713
(lp4714
(I-670
I1513
I-103
tp4715
asg2157
(lp4716
g2155
as(I-1335
I-1861
I4
tp4717
(lp4718
(I365
I-1866
I52
tp4719
ag3261
as(I645
I-1619
I-60
tp4720
(lp4721
(I1029
I-1233
I-68
tp4722
asg1778
(lp4723
g1776
asg1497
(lp4724
g1495
asg3987
(lp4725
g3985
asg3672
(lp4726
g3670
as(I-800
I-1688
I0
tp4727
(lp4728
(I-660
I-626
I-67
tp4729
asg2119
(lp4730
(I551
I-1759
I-60
tp4731
as(I-1861
I412
I-53
tp4732
(lp4733
(I-604
I635
I-72
tp4734
asg268
(lp4735
(I1255
I-1126
I-72
tp4736
asg3494
(lp4737
g3492
asg2045
(lp4738
g2043
as(I125
I-86
I-99
tp4739
(lp4740
(I579
I-441
I-67
tp4741
asg1745
(lp4742
g1743
asg4677
(lp4743
g4675
as(I-1746
I538
I-51
tp4744
(lp4745
(I-1487
I1381
I-51
tp4746
as(I-487
I1055
I-95
tp4747
(lp4748
(I-813
I1665
I-102
tp4749
asg4741
(lp4750
g4739
asg749
(lp4751
g747
ag383
asg4214
(lp4752
g4212
asg4619
(lp4753
g4617
as(I-104
I1367
I-95
tp4754
(lp4755
(I-1520
I1308
I-51
tp4756
as(I-16
I-1577
I0
tp4757
(lp4758
(I-201
I-806
I-67
tp4759
asg1529
(lp4760
g1527
asg840
(lp4761
g838
asg1208
(lp4762
g1206
asg4084
(lp4763
g4082
as(I-1555
I1380
I-51
tp4764
(lp4765
(I-640
I1277
I-86
tp4766
as(I395
I-1775
I75
tp4767
(lp4768
(I497
I-1741
I-60
tp4769
ag2631
asg4715
(lp4770
g4713
asg1251
(lp4771
g1249
as(I-720
I-1545
I0
tp4772
(lp4773
(I-569
I-1528
I0
tp4774
a(I-589
I-1486
I4
tp4775
asg1925
(lp4776
g1923
ag4757
asg4325
(lp4777
g4323
asg3211
(lp4778
g3209
asg1946
(lp4779
g1944
asg1565
(lp4780
g1563
asg3498
(lp4781
g3496
asg1395
(lp4782
g1393
asg1895
(lp4783
g1893
as(I-747
I72
I-67
tp4784
(lp4785
(I-407
I-75
I-67
tp4786
asg2178
(lp4787
g2176
as(I432
I-1332
I-68
tp4788
(lp4789
(I532
I-1694
I-60
tp4790
as(I-861
I-1898
I0
tp4791
(lp4792
(I337
I-1905
I52
tp4793
asg1215
(lp4794
(I-129
I-1130
I-73
tp4795
as(I-1472
I1423
I-51
tp4796
(lp4797
(I-1847
I359
I-54
tp4798
asg2036
(lp4799
g2034
asg388
(lp4800
g386
asg3452
(lp4801
g3450
as(I703
I-1510
I-60
tp4802
(lp4803
(I571
I-1284
I-35
tp4804
asg4683
(lp4805
(I-1150
I1941
I-89
tp4806
asg13
(lp4807
g11
asg3309
(lp4808
g3307
asg4202
(lp4809
g4200
asg1214
(lp4810
g1212
asg2807
(lp4811
g2805
asg1869
(lp4812
g1867
asg56
(lp4813
g54
asg1751
(lp4814
g1749
as(I727
I-828
I-76
tp4815
(lp4816
(I79
I-708
I-67
tp4817
as(I-927
I-1847
I0
tp4818
(lp4819
(I-1522
I-1335
I2
tp4820
asg2558
(lp4821
g2556
asg2817
(lp4822
g2815
as(I-857
I65
I-67
tp4823
(lp4824
(I-943
I63
I-45
tp4825
asg1787
(lp4826
g1785
asg2710
(lp4827
g2708
as(I-824
I-1189
I-48
tp4828
(lp4829
(I-827
I-1932
I0
tp4830
as(I197
I-1477
I-70
tp4831
(lp4832
(I178
I-1456
I-69
tp4833
asg4191
(lp4834
g4189
asg3905
(lp4835
g3903
asg1474
(lp4836
g1472
asg4114
(lp4837
g4112
asg4502
(lp4838
g4500
as(I567
I-1559
I-60
tp4839
(lp4840
(I1271
I-1170
I-74
tp4841
as(I-1143
I1719
I-99
tp4842
(lp4843
(I-1572
I1383
I-51
tp4844
asg2585
(lp4845
g2583
asg3279
(lp4846
g3277
asg2855
(lp4847
g2853
asg3194
(lp4848
(I-1984
I-127
I-28
tp4849
asg1907
(lp4850
g1905
asg2713
(lp4851
g2711
as(I825
I581
I-85
tp4852
(lp4853
(I396
I603
I-102
tp4854
asg4141
(lp4855
g4139
asg395
(lp4856
g393
asg1898
(lp4857
g1896
asg1819
(lp4858
g1817
asg1878
(lp4859
g1876
as(I-1482
I-1328
I2
tp4860
(lp4861
(I-1438
I-916
I3
tp4862
ag2637
asg973
(lp4863
g971
as(I190
I610
I-95
tp4864
(lp4865
(I72
I68
I-99
tp4866
asg2306
(lp4867
g2304
as(I-552
I-798
I-67
tp4868
(lp4869
(I-310
I-855
I-67
tp4870
as(I-106
I-51
I-67
tp4871
(lp4872
(I-639
I8
I-67
tp4873
asg3757
(lp4874
g3755
asg1360
(lp4875
g1358
asg321
(lp4876
(I375
I-1844
I59
tp4877
asg4622
(lp4878
(I-251
I1327
I-95
tp4879
asg3562
(lp4880
g3560
asg3024
(lp4881
(I-431
I1345
I-104
tp4882
as(I-461
I-2250
I1
tp4883
(lp4884
(I326
I-1913
I52
tp4885
asg3336
(lp4886
g3334
a(I-853
I-21
I-67
tp4887
asg3383
(lp4888
g3381
ag4268
asg2456
(lp4889
g2454
asg4460
(lp4890
g4458
asg2721
(lp4891
g2719
asg705
(lp4892
g703
as(I702
I-955
I-63
tp4893
(lp4894
(I1212
I-1205
I-72
tp4895
ag3565
asg4766
(lp4896
g4764
asg4224
(lp4897
g4222
asg2987
(lp4898
g2985
asg1999
(lp4899
g1997
as(I-1030
I-1803
I4
tp4900
(lp4901
(I-783
I-1591
I0
tp4902
asg2729
(lp4903
g2727
asg1118
(lp4904
g1116
asg3751
(lp4905
g3749
asg578
(lp4906
g576
asg3476
(lp4907
g3474
asg736
(lp4908
g734
asg3502
(lp4909
g3500
asg3963
(lp4910
g3961
asg3732
(lp4911
(I1104
I1144
I-87
tp4912
asg4581
(lp4913
g4579
as(I-1408
I384
I-52
tp4914
(lp4915
(I-1525
I618
I-51
tp4916
as(I102
I-1971
I8
tp4917
(lp4918
(I51
I-1753
I4
tp4919
asg4486
(lp4920
g4484
asg4146
(lp4921
g4144
as(I368
I-2017
I8
tp4922
(lp4923
(I264
I-2087
I17
tp4924
asg1634
(lp4925
g1632
asg3051
(lp4926
g3049
asg4774
(lp4927
g4772
as(I-114
I-1077
I-72
tp4928
(lp4929
(I-934
I37
I-67
tp4930
asg1161
(lp4931
g1159
ag2313
asg1916
(lp4932
g1914
asg2475
(lp4933
(I175
I1428
I-95
tp4934
asg940
(lp4935
g938
asg1291
(lp4936
g1289
asg3189
(lp4937
(I183
I1376
I-95
tp4938
asg4514
(lp4939
g4512
asg4379
(lp4940
g4377
asg3802
(lp4941
g3800
asg4820
(lp4942
g4818
asg3726
(lp4943
g3724
asg3033
(lp4944
g3031
asg3920
(lp4945
g3918
asg4756
(lp4946
g4754
asg3690
(lp4947
(I371
I-2010
I8
tp4948
asg4841
(lp4949
g4839
asg1090
(lp4950
g1088
asg4295
(lp4951
g4293
ag645
asg1084
(lp4952
g1082
asg2605
(lp4953
g2603
asg4722
(lp4954
g4720
asg4465
(lp4955
g4463
asg2144
(lp4956
g2142
asg4817
(lp4957
g4815
asg880
(lp4958
g878
asg174
(lp4959
g172
asg2747
(lp4960
g2745
asg3284
(lp4961
g3282
asg4018
(lp4962
g4016
asg1364
(lp4963
g1362
asg4195
(lp4964
g4193
as(I-1490
I1149
I-51
tp4965
(lp4966
(I-1940
I183
I-53
tp4967
asg1164
(lp4968
g1162
as(I-6
I1257
I-95
tp4969
(lp4970
(I-845
I1825
I-95
tp4971
asg1975
(lp4972
g1973
asg2339
(lp4973
(I-273
I1280
I-95
tp4974
asg2013
(lp4975
g2011
asg280
(lp4976
g278
asg4468
(lp4977
g4466
as(I-289
I1
I-67
tp4978
(lp4979
(I615
I-61
I-80
tp4980
asg3582
(lp4981
(I1057
I1269
I-87
tp4982
asg231
(lp4983
g229
asg3917
(lp4984
g3915
asg3645
(lp4985
g3643
asg2087
(lp4986
g2085
asg2898
(lp4987
g2896
ag4969
asg3073
(lp4988
g3071
asg22
(lp4989
g20
asg1962
(lp4990
g1960
as(I-8
I-2057
I4
tp4991
(lp4992
(I472
I-1762
I-60
tp4993
asg2491
(lp4994
g2489
asg1226
(lp4995
g1224
asg1415
(lp4996
(I-1344
I-1860
I4
tp4997
asg3937
(lp4998
(I-763
I492
I-72
tp4999
asg4649
(lp5000
g4647
asg4638
(lp5001
g4636
asg3765
(lp5002
g3763
asg1808
(lp5003
g1806
asg2451
(lp5004
g2449
as(I-1598
I1537
I-51
tp5005
(lp5006
(I-1786
I642
I-51
tp5007
asg3960
(lp5008
g3958
asg4885
(lp5009
g4883
as(I-922
I25
I-67
tp5010
(lp5011
(I-756
I173
I-67
tp5012
asg2154
(lp5013
g2152
asg696
(lp5014
g694
as(I1235
I-1167
I-72
tp5015
(lp5016
(I289
I-60
I-80
tp5017
asg4524
(lp5018
g4522
asg4281
(lp5019
g4279
as(I157
I-1940
I8
tp5020
(lp5021
(I-608
I-2252
I3
tp5022
asg2765
(lp5023
g2763
asg1038
(lp5024
g1036
asg2338
(lp5025
g2336
as(I-885
I-1816
I0
tp5026
(lp5027
(I-1262
I-1646
I4
tp5028
asg1264
(lp5029
g1262
asg4980
(lp5030
g4978
asg3780
(lp5031
g3778
asg4698
(lp5032
g4696
asg301
(lp5033
g299
asg3885
(lp5034
g3883
asg3973
(lp5035
g3971
asg2619
(lp5036
g2617
asg3458
(lp5037
g3456
asg4178
(lp5038
(I36
I-1029
I-69
tp5039
as(I359
I-1848
I56
tp5040
(lp5041
(I-1059
I-1672
I4
tp5042
a(I-610
I-1605
I0
tp5043
asg4924
(lp5044
g4922
asg4681
(lp5045
g4679
asg889
(lp5046
g887
asg4218
(lp5047
g4216
asg1530
(lp5048
(I693
I328
I-93
tp5049
asg1540
(lp5050
g1538
asg2858
(lp5051
g2856
as(I-1795
I-227
I-44
tp5052
(lp5053
(I-2052
I-5
I-45
tp5054
asg3968
(lp5055
g3966
as(I-408
I-1819
I0
tp5056
(lp5057
(I-786
I-1505
I0
tp5058
asg2804
(lp5059
(I-1244
I-1662
I4
tp5060
as(I-503
I-1563
I0
tp5061
(lp5062
(I-93
I-1466
I11
tp5063
as(I45
I-1931
I65
tp5064
(lp5065
(I362
I-1941
I39
tp5066
asg665
(lp5067
g663
ag1820
asg454
(lp5068
g452
asg3533
(lp5069
g3531
asg37
(lp5070
g35
asg1769
(lp5071
g1767
asg2707
(lp5072
g2705
as(I-1117
I1935
I-92
tp5073
(lp5074
(I-1538
I1287
I-51
tp5075
as(I517
I-1611
I-26
tp5076
(lp5077
(I1261
I-1121
I-72
tp5078
as(I-323
I-2128
I0
tp5079
(lp5080
(I534
I-571
I-68
tp5081
asg2544
(lp5082
g2542
asg2826
(lp5083
g2824
asg809
(lp5084
g807
asg3952
(lp5085
g3950
asg501
(lp5086
g499
asg571
(lp5087
g569
asg3592
(lp5088
g3590
asg1904
(lp5089
g1902
asg4312
(lp5090
g4310
asg3099
(lp5091
g3097
as(I611
I-731
I-66
tp5092
(lp5093
(I631
I-1077
I-63
tp5094
asg3608
(lp5095
g3606
asg2388
(lp5096
g2386
as(I320
I-1322
I-68
tp5097
(lp5098
(I185
I-1472
I-70
tp5099
asg2695
(lp5100
g2693
asg4786
(lp5101
g4784
asg4336
(lp5102
g4334
ag3059
as(I398
I-1895
I52
tp5103
(lp5104
(I455
I-1892
I52
tp5105
asg2023
(lp5106
g2021
asg4433
(lp5107
g4431
asg1146
(lp5108
g1144
asg3740
(lp5109
g3738
ag2098
asg1063
(lp5110
g1061
asg1220
(lp5111
g1218
asg2326
(lp5112
g2324
asg561
(lp5113
g559
asg201
(lp5114
g199
asg2676
(lp5115
g2674
asg28
(lp5116
g26
asg1507
(lp5117
g1505
asg4482
(lp5118
(I472
I-1761
I-60
tp5119
asg1763
(lp5120
g1761
asg4481
(lp5121
(I472
I-1761
I-60
tp5122
asg5081
(lp5123
g5079
asg2654
(lp5124
g2652
asg3275
(lp5125
g3273
as(I-765
I-1148
I-56
tp5126
(lp5127
(I-745
I-1510
I0
tp5128
asg2247
(lp5129
g2245
as(I-543
I-938
I-67
tp5130
(lp5131
(I-488
I-920
I-67
tp5132
asg2984
(lp5133
g2982
asg1078
(lp5134
g1076
asg3287
(lp5135
g3285
asg4729
(lp5136
g4727
asg3809
(lp5137
g3807
ag4928
asg4316
(lp5138
g4314
asg5042
(lp5139
g5040
asg1489
(lp5140
g1487
asg3794
(lp5141
g3792
asg4866
(lp5142
g4864
asg53
(lp5143
(I-634
I-1553
I0
tp5144
as(I283
I906
I-102
tp5145
(lp5146
(I873
I643
I-85
tp5147
asg4532
(lp5148
g4530
asg1805
(lp5149
g1803
asg4825
(lp5150
g4823
asg3630
(lp5151
g3628
ag4205
asg1419
(lp5152
(I-1344
I-1860
I4
tp5153
asg3658
(lp5154
g3656
asg4075
(lp5155
(I-1012
I1968
I-100
tp5156
ag1447
as(I-514
I522
I-71
tp5157
(lp5158
(I-787
I527
I-73
tp5159
asg3894
(lp5160
g3892
asg1017
(lp5161
g1015
asg3669
(lp5162
g3667
asg431
(lp5163
g429
as(I-1424
I1471
I-51
tp5164
(lp5165
(I-1519
I1237
I-51
tp5166
asg3769
(lp5167
g3767
asg3011
(lp5168
g3009
asg2579
(lp5169
g2577
asg1402
(lp5170
g1400
asg4390
(lp5171
g4388
asg1328
(lp5172
g1326
asg4587
(lp5173
g4585
asg883
(lp5174
g881
asg5159
(lp5175
g5157
asg2498
(lp5176
(I-462
I-1556
I0
tp5177
asg4345
(lp5178
g4343
asg4410
(lp5179
g4408
asg4769
(lp5180
g4767
asg156
(lp5181
g154
asg4050
(lp5182
g4048
asg4497
(lp5183
g4495
asg1575
(lp5184
g1573
as(I-289
I1637
I-95
tp5185
(lp5186
(I-905
I1716
I-103
tp5187
asg4793
(lp5188
g4791
ag4611
asg3115
(lp5189
g3113
asg2517
(lp5190
g2515
ag2785
asg1194
(lp5191
g1192
a(I-1566
I1343
I-51
tp5192
asg2642
(lp5193
g2640
as(I-1428
I-913
I3
tp5194
(lp5195
(I-568
I-2012
I0
tp5196
asg3777
(lp5197
g3775
asg3859
(lp5198
g3857
asg185
(lp5199
(I291
I-1980
I21
tp5200
asg3791
(lp5201
(I-1522
I659
I-51
tp5202
asg994
(lp5203
g992
asg298
(lp5204
g296
asg1590
(lp5205
g1588
ag3175
asg2864
(lp5206
g2862
asg511
(lp5207
(I482
I-1197
I-70
tp5208
asg4642
(lp5209
g4640
asg2572
(lp5210
g2570
as(I317
I-1860
I52
tp5211
(lp5212
(I-642
I-2234
I8
tp5213
as(I166
I-1416
I-68
tp5214
(lp5215
(I815
I-1130
I-71
tp5216
asg2069
(lp5217
g2067
asg4798
(lp5218
g4796
asg5078
(lp5219
g5076
asg5017
(lp5220
g5015
asg3290
(lp5221
g3288
as(I746
I1289
I-101
tp5222
(lp5223
(I-306
I1254
I-95
tp5224
asg5054
(lp5225
g5052
asg2404
(lp5226
g2402
ag4788
asg98
(lp5227
g96
asg1200
(lp5228
g1198
asg4026
(lp5229
g4024
as(I-1812
I-765
I79
tp5230
(lp5231
(I-1786
I-655
I80
tp5232
asg4734
(lp5233
g4732
asg5094
(lp5234
g5092
asg2504
(lp5235
g2502
asg2622
(lp5236
g2620
asg1337
(lp5237
g1335
asg3701
(lp5238
g3699
asg1658
(lp5239
g1656
asg4321
(lp5240
g4319
asg4151
(lp5241
g4149
asg1510
(lp5242
g1508
asg1069
(lp5243
g1067
asg2238
(lp5244
g2236
asg4166
(lp5245
g4164
asg2840
(lp5246
g2838
asg596
(lp5247
g594
as(I-356
I1285
I-95
tp5248
(lp5249
(I-538
I1046
I-95
tp5250
asg2683
(lp5251
g2681
asg532
(lp5252
g530
asg1056
(lp5253
g1054
ag81
asg1205
(lp5254
g1203
asg1142
(lp5255
g1140
asg5105
(lp5256
g5103
asg4862
(lp5257
g4860
asg963
(lp5258
g961
asg428
(lp5259
g426
asg2933
(lp5260
g2931
asg165
(lp5261
g163
asg1711
(lp5262
g1709
asg2541
(lp5263
g2539
asg5028
(lp5264
g5026
asg4371
(lp5265
g4369
asg5192
(lp5266
(I-220
I1339
I-95
tp5267
asg4292
(lp5268
g4290
asg3358
(lp5269
g3356
asg3235
(lp5270
(I868
I675
I-85
tp5271
asg5232
(lp5272
g5230
asg4015
(lp5273
g4013
asg2936
(lp5274
g2934
asg764
(lp5275
g762
asg5147
(lp5276
g5145
asg1314
(lp5277
(I379
I-1881
I52
tp5278
ag3378
ag869
as(I751
I-83
I-87
tp5279
(lp5280
(I617
I222
I-89
tp5281
asg2019
(lp5282
g2017
asg5250
(lp5283
g5248
asg5187
(lp5284
g5185
asg4669
(lp5285
g4667
asg740
(lp5286
g738
asg4830
(lp5287
g4828
asg1135
(lp5288
g1133
as(I-1416
I-241
I80
tp5289
(lp5290
(I-1263
I-283
I78
tp5291
asg3638
(lp5292
g3636
asg1041
(lp5293
g1039
asg4047
(lp5294
(I-1522
I616
I-51
tp5295
asg3471
(lp5296
g3469
asg5128
(lp5297
g5126
asg2814
(lp5298
g2812
asg68
(lp5299
g66
asg921
(lp5300
g919
asg5291
(lp5301
g5289
asg5075
(lp5302
g5073
as(I-548
I715
I-74
tp5303
(lp5304
(I-1980
I203
I-54
tp5305
asg1884
(lp5306
g1882
a(I474
I-1600
I0
tp5307
asg3825
(lp5308
g3823
asg5007
(lp5309
g5005
asg4289
(lp5310
g4287
asg1095
(lp5311
(I-1087
I1984
I-98
tp5312
asg3601
(lp5313
g3599
asg2369
(lp5314
g2367
asg1675
(lp5315
(I-559
I1393
I-103
tp5316
asg5224
(lp5317
g5222
asg2612
(lp5318
g2610
asg4854
(lp5319
g4852
asg4094
(lp5320
g4092
asg1881
(lp5321
g1879
asg659
(lp5322
g657
asg2666
(lp5323
g2664
asg1547
(lp5324
g1545
asg1485
(lp5325
g1483
asg5066
(lp5326
g5064
asg1526
(lp5327
g1524
asg3578
(lp5328
g3576
asg862
(lp5329
g860
asg4477
(lp5330
g4475
asg4919
(lp5331
g4917
asg4124
(lp5332
g4122
as(I-523
I-730
I-67
tp5333
(lp5334
(I-396
I-315
I-67
tp5335
asg4473
(lp5336
(I-696
I-934
I-67
tp5337
asg4559
(lp5338
g4557
asg3720
(lp5339
g3718
asg781
(lp5340
(I-637
I1375
I-101
tp5341
asg5043
(lp5342
(I359
I-1848
I56
tp5343
asg2084
(lp5344
g2082
asg2718
(lp5345
g2716
asg2926
(lp5346
g2924
asg4012
(lp5347
g4010
asg1691
(lp5348
g1689
asg1108
(lp5349
g1106
asg4562
(lp5350
g4560
asg349
(lp5351
g347
asg2006
(lp5352
g2004
asg5213
(lp5353
g5211
asg2773
(lp5354
g2771
asg4749
(lp5355
g4747
asg2440
(lp5356
g2438
asg2394
(lp5357
g2392
asg5022
(lp5358
g5020
asg4068
(lp5359
g4066
asg4655
(lp5360
g4653
asg2216
(lp5361
g2214
asg4916
(lp5362
g4914
asg1543
(lp5363
g1541
asg4023
(lp5364
g4021
asg5058
(lp5365
g5056
asg4967
(lp5366
g4965
asg2481
(lp5367
(I441
I-1673
I-60
tp5368
asg1023
(lp5369
g1021
asg1059
(lp5370
g1057
asg4870
(lp5371
g4868
asg4902
(lp5372
g4900
asg952
(lp5373
g950
asg1702
(lp5374
(I-122
I-2260
I0
tp5375
asg1812
(lp5376
g1810
asg5305
(lp5377
g5303
asg2651
(lp5378
g2649
asg4198
(lp5379
g4196
asg3070
(lp5380
g3068
ag4893
asg3067
(lp5381
g3065
asg2109
(lp5382
g2107
asg4130
(lp5383
g4128
asg2488
(lp5384
g2486
asg3398
(lp5385
g3396
asg3869
(lp5386
g3867
asg1848
(lp5387
g1846
asg3788
(lp5388
g3786
asg3646
(lp5389
(I-851
I1684
I-103
tp5390
asg2913
(lp5391
g2911
asg3838
(lp5392
g3836
asg4274
(lp5393
g4272
asg2508
(lp5394
g2506
asg4873
(lp5395
g4871
asg2147
(lp5396
g2145
asg270
(lp5397
(I1255
I-1126
I-72
tp5398
asg2906
(lp5399
g2904
asg4255
(lp5400
g4253
asg2964
(lp5401
g2962
asg4584
(lp5402
g4582
asg4042
(lp5403
g4040
asg708
(lp5404
g706
asg1958
(lp5405
g1956
asg4746
(lp5406
g4744
ag4518
as(I318
I1013
I-104
tp5407
(lp5408
(I106
I1197
I-95
tp5409
asg4471
(lp5410
g4469
asg5281
(lp5411
g5279
as(I-1155
I-1848
I4
tp5412
(lp5413
(I-382
I-1758
I0
tp5414
asg2410
(lp5415
g2408
as(I163
I-1714
I2
tp5416
(lp5417
(I306
I-1975
I22
tp5418
asg4573
(lp5419
(I-206
I-58
I-67
tp5420
asg416
(lp5421
g414
asg2111
(lp5422
(I-899
I1736
I-104
tp5423
asg1721
(lp5424
g1719
asg780
(lp5425
g778
asg4833
(lp5426
g4831
as(I-907
I-1438
I0
tp5427
(lp5428
(I-1115
I-1576
I4
tp5429
asg5409
(lp5430
g5407
asg5307
(lp5431
(I182
I-2124
I8
tp5432
asg1816
(lp5433
g1814
asg4565
(lp5434
g4563
asg4062
(lp5435
g4060
asg4072
(lp5436
g4070
asg197
(lp5437
g195
asg1284
(lp5438
g1282
asg5414
(lp5439
g5412
asg1053
(lp5440
g1051
asg3252
(lp5441
g3250
asg2976
(lp5442
g2974
asg5099
(lp5443
g5097
asg2673
(lp5444
g2671
asg4382
(lp5445
g4380
asg1254
(lp5446
g1252
asg5012
(lp5447
g5010
asg5418
(lp5448
g5416
as(I97
I1243
I-95
tp5449
(lp5450
(I-1502
I1342
I-51
tp5451
asg2003
(lp5452
g2001
asg2418
(lp5453
g2416
asg1121
(lp5454
g1119
asg2329
(lp5455
g2327
asg1278
(lp5456
(I648
I760
I-99
tp5457
asg5216
(lp5458
g5214
asg184
(lp5459
g182
asg4055
(lp5460
g4053
asg1354
(lp5461
g1352
asg3651
(lp5462
(I-1572
I1444
I-51
tp5463
asg3723
(lp5464
g3721
asg4138
(lp5465
g4136
asg2302
(lp5466
g2300
ag600
asg1990
(lp5467
g1988
asg5429
(lp5468
g5427
asg361
(lp5469
g359
asg2135
(lp5470
g2133
asg5063
(lp5471
g5061
asg5451
(lp5472
g5449
asg2811
(lp5473
g2809
asg4607
(lp5474
g4605
asg727
(lp5475
g725
asg261
(lp5476
g259
asg2575
(lp5477
g2573
asg4625
(lp5478
g4623
asg3249
(lp5479
g3247
asg2526
(lp5480
g2524
asg4804
(lp5481
g4802
asg4394
(lp5482
g4392
asg2947
(lp5483
g2945
asg4719
(lp5484
g4717
asg2400
(lp5485
(I627
I-1560
I-60
tp5486
asg4993
(lp5487
g4991
asg4844
(lp5488
g4842
asg4037
(lp5489
g4035
asg545
(lp5490
(I124
I-1422
I-68
tp5491
asg5132
(lp5492
g5130
asg3650
(lp5493
g3648
asg2272
(lp5494
g2270
ag5164
asg3744
(lp5495
g3742
asg5196
(lp5496
g5194
asg4003
(lp5497
(I78
I1265
I-95
tp5498
asg514
(lp5499
g512
asg2182
(lp5500
g2180
asg5335
(lp5501
g5333
asg2511
(lp5502
g2509
asg4031
(lp5503
g4029
ag4245
asg258
(lp5504
g256
asg3877
(lp5505
g3875
asg4348
(lp5506
g4346
asg3604
(lp5507
g3602
asg3215
(lp5508
g3213
asg1687
(lp5509
(I318
I-619
I-70
tp5510
as.